MPASM  5.49                     METRONOMO.ASM   5-6-2018  16:23:18         PAGE  1


LOC  OBJECT CODE     LINE SOURCE TEXT
  VALUE

                      00001 ;************************************************************
                      00002 ;*                              INSTITUTO POLITECNICO NACIONAL                          *
                      00003 ;*                      Unidad Profesional Interdisciplinara De                 *
                      00004 ;*                        Ingenieria Y Tecnologías Avanzadas                    *
                      00005 ;*                                                                                                      
                                            *
                      00006 ;*                                                                                                      
                                            *
                      00007 ;*                      Programacion De Sistemas En Tiempo Real                 *
                      00008 ;*                                                                                                      
                                            *
                      00009 ;*              Fecha: 15 de abril del 2018                                                     *       
                      00010 ;*                                                                                                      
                                            *
                      00011 ;*              Ramírez López Jesús Alberto                                                     *
                      00012 ;*              Zoza Tejeda Nicole Denisse                                                      *
                      00013 ;*              Becerril Ortega Saul                                                            *
                      00014 ;*                                                                                                      
                                            *
                      00015 ;*              PROGRAMA:METRONOMO                                                                      
                            *
                      00016 ;*              PARA: MICROCONTROLADOR PIC16F887                                        *
                      00017 ;*              ENSAMBLADO EN: MPLAB For Windows                                        *
                      00018 ;************************************************************
                      00019                         PROCESSOR 16F887
                      00020                         INCLUDE <P16F887.inc>
                      00001         LIST
                      00002 
                      00003 ;==========================================================================
                      00004 ;  MPASM PIC16F887 processor include
                      00005 ; 
                      00006 ;  (c) Copyright 1999-2013 Microchip Technology, All rights reserved
                      00007 ;==========================================================================
                      00008 
                      00809         LIST
2007   2BE2           00021                         __CONFIG 0X2007,0X2BE2
2008   3FFF           00022                         __CONFIG 0X2008,0X3FFF
                      00023 
                      00024 ;******************************************************************
                      00025 ;                       CONFIGURACION DE PUERTOS
                      00026 ;******************************************************************
                      00027                         ORG     0X00
0000   0185           00028                         CLRF    PORTA
0001   0186           00029                         CLRF    PORTB
0002   0187           00030                         CLRF    PORTC           
0003   0188           00031                         CLRF    PORTD   
0004   1683           00032                         BSF             STATUS,RP0      ;BANCO1
Message[302]: Register in operand not in bank 0.  Ensure that bank bits are correct.
0005   0187           00033                         CLRF    TRISC
Message[302]: Register in operand not in bank 0.  Ensure that bank bits are correct.
0006   0186           00034                         CLRF    TRISB
0007   1703           00035                         BSF             STATUS,RP1      ;BANCO3
Message[302]: Register in operand not in bank 0.  Ensure that bank bits are correct.
MPASM  5.49                     METRONOMO.ASM   5-6-2018  16:23:18         PAGE  2


LOC  OBJECT CODE     LINE SOURCE TEXT
  VALUE

0008   0188           00036                         CLRF    ANSEL
Message[302]: Register in operand not in bank 0.  Ensure that bank bits are correct.
0009   0189           00037                         CLRF    ANSELH  
000A   1303           00038                         BCF             STATUS,RP1
000B   1283           00039                         BCF             STATUS,RP0      ;BANCO0
                      00040 ;****************************************************************0000 0011              0000 00
                      00041 
000C   0808           00042 INICIO          MOVF    PORTD,W         ;LARGO
000D   3977           00043                         ANDLW   0X77
000E   3A00           00044                         XORLW   0X00
000F   1903           00045                         BTFSC   STATUS,Z
0010   2???           00046                         GOTO    LARGO_0
0011   0808           00047                         MOVF    PORTD,W
0012   3977           00048                         ANDLW   0X77
0013   3A01           00049                         XORLW   0X01
0014   1903           00050                         BTFSC   STATUS,Z
0015   2???           00051                         GOTO    LARGO_2
0016   0808           00052                         MOVF    PORTD,W
0017   3977           00053                         ANDLW   0X77
0018   3A02           00054                         XORLW   0X02
0019   1903           00055                         BTFSC   STATUS,Z
001A   2???           00056                         GOTO    LARGO_3
001B   0808           00057                         MOVF    PORTD,W
001C   3977           00058                         ANDLW   0X77
001D   3A03           00059                         XORLW   0X03
001E   1903           00060                         BTFSC   STATUS,Z
001F   2???           00061                         GOTO    LARGO_4
0020   0808           00062                         MOVF    PORTD,W
0021   3977           00063                         ANDLW   0X77
0022   3A04           00064                         XORLW   0X04
0023   1903           00065                         BTFSC   STATUS,Z
0024   2???           00066                         GOTO    LARGO_5
0025   0808           00067                         MOVF    PORTD,W
0026   3977           00068                         ANDLW   0X77
0027   3A05           00069                         XORLW   0X05
0028   1903           00070                         BTFSC   STATUS,Z
0029   2???           00071                         GOTO    LARGO_6
002A   0808           00072                         MOVF    PORTD,W
002B   3977           00073                         ANDLW   0X77
002C   3A06           00074                         XORLW   0X06
002D   1903           00075                         BTFSC   STATUS,Z
002E   2???           00076                         GOTO    LARGO_7
002F   0808           00077                         MOVF    PORTD,W
0030   3977           00078                         ANDLW   0X77
0031   3A07           00079                         XORLW   0X07
0032   1903           00080                         BTFSC   STATUS,Z
0033   2???           00081                         GOTO    LARGO_8
                      00082                         
0034   0808           00083                         MOVF    PORTD,W         ;LARGHETTO
0035   3977           00084                         ANDLW   0X77
0036   3A10           00085                         XORLW   0X10
0037   1903           00086                         BTFSC   STATUS,Z
0038   2???           00087                         GOTO    LARGHETTO_0
MPASM  5.49                     METRONOMO.ASM   5-6-2018  16:23:18         PAGE  3


LOC  OBJECT CODE     LINE SOURCE TEXT
  VALUE

0039   0808           00088                         MOVF    PORTD,W
003A   3977           00089                         ANDLW   0X77
003B   3A11           00090                         XORLW   0X11
003C   1903           00091                         BTFSC   STATUS,Z
003D   2???           00092                         GOTO    LARGHETTO_2
003E   0808           00093                         MOVF    PORTD,W
003F   3977           00094                         ANDLW   0X77
0040   3A12           00095                         XORLW   0X12
0041   1903           00096                         BTFSC   STATUS,Z
0042   2???           00097                         GOTO    LARGHETTO_3
0043   0808           00098                         MOVF    PORTD,W
0044   3977           00099                         ANDLW   0X77
0045   3A13           00100                         XORLW   0X13
0046   1903           00101                         BTFSC   STATUS,Z
0047   2???           00102                         GOTO    LARGHETTO_4
0048   0808           00103                         MOVF    PORTD,W
0049   3977           00104                         ANDLW   0X77
004A   3A14           00105                         XORLW   0X14
004B   1903           00106                         BTFSC   STATUS,Z
004C   2???           00107                         GOTO    LARGHETTO_5
004D   0808           00108                         MOVF    PORTD,W
004E   3977           00109                         ANDLW   0X77
004F   3A15           00110                         XORLW   0X15
0050   1903           00111                         BTFSC   STATUS,Z
0051   2???           00112                         GOTO    LARGHETTO_6
0052   0808           00113                         MOVF    PORTD,W
0053   3977           00114                         ANDLW   0X77
0054   3A16           00115                         XORLW   0X16
0055   1903           00116                         BTFSC   STATUS,Z
0056   2???           00117                         GOTO    LARGHETTO_7
0057   0808           00118                         MOVF    PORTD,W
0058   3977           00119                         ANDLW   0X77
0059   3A17           00120                         XORLW   0X17
005A   1903           00121                         BTFSC   STATUS,Z
005B   2???           00122                         GOTO    LARGHETTO_8
                      00123                         
005C   0808           00124                         MOVF    PORTD,W         ;ADAGIO
005D   3977           00125                         ANDLW   0X77
005E   3A20           00126                         XORLW   0X20
005F   1903           00127                         BTFSC   STATUS,Z
0060   2???           00128                         GOTO    ADAGIO_0
0061   0808           00129                         MOVF    PORTD,W
0062   3977           00130                         ANDLW   0X77
0063   3A21           00131                         XORLW   0X21
0064   1903           00132                         BTFSC   STATUS,Z
0065   2???           00133                         GOTO    ADAGIO_2
0066   0808           00134                         MOVF    PORTD,W
0067   3977           00135                         ANDLW   0X77
0068   3A22           00136                         XORLW   0X22
0069   1903           00137                         BTFSC   STATUS,Z
006A   2???           00138                         GOTO    ADAGIO_3
006B   0808           00139                         MOVF    PORTD,W
006C   3977           00140                         ANDLW   0X77
MPASM  5.49                     METRONOMO.ASM   5-6-2018  16:23:18         PAGE  4


LOC  OBJECT CODE     LINE SOURCE TEXT
  VALUE

006D   3A23           00141                         XORLW   0X23
006E   1903           00142                         BTFSC   STATUS,Z
006F   2???           00143                         GOTO    ADAGIO_4
0070   0808           00144                         MOVF    PORTD,W
0071   3977           00145                         ANDLW   0X77
0072   3A24           00146                         XORLW   0X24
0073   1903           00147                         BTFSC   STATUS,Z
0074   2???           00148                         GOTO    ADAGIO_5
0075   0808           00149                         MOVF    PORTD,W
0076   3977           00150                         ANDLW   0X77
0077   3A25           00151                         XORLW   0X25
0078   1903           00152                         BTFSC   STATUS,Z
0079   2???           00153                         GOTO    ADAGIO_6
007A   0808           00154                         MOVF    PORTD,W
007B   3977           00155                         ANDLW   0X77
007C   3A26           00156                         XORLW   0X26
007D   1903           00157                         BTFSC   STATUS,Z
007E   2???           00158                         GOTO    ADAGIO_7
007F   0808           00159                         MOVF    PORTD,W
0080   3977           00160                         ANDLW   0X77
0081   3A27           00161                         XORLW   0X27
0082   1903           00162                         BTFSC   STATUS,Z
0083   2???           00163                         GOTO    ADAGIO_8
                      00164 
0084   0808           00165                         MOVF    PORTD,W         ;ANDANTE
0085   3977           00166                         ANDLW   0X77
0086   3A30           00167                         XORLW   0X30
0087   1903           00168                         BTFSC   STATUS,Z
0088   2???           00169                         GOTO    ANDANTE_0
0089   0808           00170                         MOVF    PORTD,W
008A   3977           00171                         ANDLW   0X77
008B   3A31           00172                         XORLW   0X31
008C   1903           00173                         BTFSC   STATUS,Z
008D   2???           00174                         GOTO    ANDANTE_2
008E   0808           00175                         MOVF    PORTD,W
008F   3977           00176                         ANDLW   0X77
0090   3A32           00177                         XORLW   0X32
0091   1903           00178                         BTFSC   STATUS,Z
0092   2???           00179                         GOTO    ANDANTE_3
0093   0808           00180                         MOVF    PORTD,W
0094   3977           00181                         ANDLW   0X77
0095   3A33           00182                         XORLW   0X33
0096   1903           00183                         BTFSC   STATUS,Z
0097   2???           00184                         GOTO    ANDANTE_4
0098   0808           00185                         MOVF    PORTD,W
0099   3977           00186                         ANDLW   0X77
009A   3A34           00187                         XORLW   0X34
009B   1903           00188                         BTFSC   STATUS,Z
009C   2???           00189                         GOTO    ANDANTE_5
009D   0808           00190                         MOVF    PORTD,W
009E   3977           00191                         ANDLW   0X77
009F   3A35           00192                         XORLW   0X35
00A0   1903           00193                         BTFSC   STATUS,Z
MPASM  5.49                     METRONOMO.ASM   5-6-2018  16:23:18         PAGE  5


LOC  OBJECT CODE     LINE SOURCE TEXT
  VALUE

00A1   2???           00194                         GOTO    ANDANTE_6
00A2   0808           00195                         MOVF    PORTD,W
00A3   3977           00196                         ANDLW   0X77
00A4   3A36           00197                         XORLW   0X36
00A5   1903           00198                         BTFSC   STATUS,Z
00A6   2???           00199                         GOTO    ANDANTE_7
00A7   0808           00200                         MOVF    PORTD,W
00A8   3977           00201                         ANDLW   0X77
00A9   3A37           00202                         XORLW   0X37
00AA   1903           00203                         BTFSC   STATUS,Z
00AB   2???           00204                         GOTO    ANDANTE_8
                      00205 
00AC   0808           00206                         MOVF    PORTD,W         ;MODERATO
00AD   3977           00207                         ANDLW   0X77
00AE   3A40           00208                         XORLW   0X40
00AF   1903           00209                         BTFSC   STATUS,Z
00B0   2???           00210                         GOTO    MODERATO_0
00B1   0808           00211                         MOVF    PORTD,W
00B2   3977           00212                         ANDLW   0X77
00B3   3A41           00213                         XORLW   0X41
00B4   1903           00214                         BTFSC   STATUS,Z
00B5   2???           00215                         GOTO    MODERATO_2
00B6   0808           00216                         MOVF    PORTD,W
00B7   3977           00217                         ANDLW   0X77
00B8   3A42           00218                         XORLW   0X42
00B9   1903           00219                         BTFSC   STATUS,Z
00BA   2???           00220                         GOTO    MODERATO_3
00BB   0808           00221                         MOVF    PORTD,W
00BC   3977           00222                         ANDLW   0X77
00BD   3A43           00223                         XORLW   0X43
00BE   1903           00224                         BTFSC   STATUS,Z
00BF   2???           00225                         GOTO    MODERATO_4
00C0   0808           00226                         MOVF    PORTD,W
00C1   3977           00227                         ANDLW   0X77
00C2   3A44           00228                         XORLW   0X44
00C3   1903           00229                         BTFSC   STATUS,Z
00C4   2???           00230                         GOTO    MODERATO_5
00C5   0808           00231                         MOVF    PORTD,W
00C6   3977           00232                         ANDLW   0X77
00C7   3A45           00233                         XORLW   0X45
00C8   1903           00234                         BTFSC   STATUS,Z
00C9   2???           00235                         GOTO    MODERATO_6
00CA   0808           00236                         MOVF    PORTD,W
00CB   3977           00237                         ANDLW   0X77
00CC   3A46           00238                         XORLW   0X46
00CD   1903           00239                         BTFSC   STATUS,Z
00CE   2???           00240                         GOTO    MODERATO_7
00CF   0808           00241                         MOVF    PORTD,W
00D0   3977           00242                         ANDLW   0X77
00D1   3A47           00243                         XORLW   0X47
00D2   1903           00244                         BTFSC   STATUS,Z
00D3   2???           00245                         GOTO    MODERATO_8
                      00246 
MPASM  5.49                     METRONOMO.ASM   5-6-2018  16:23:18         PAGE  6


LOC  OBJECT CODE     LINE SOURCE TEXT
  VALUE

00D4   0808           00247                         MOVF    PORTD,W         ;ALLEGRO
00D5   3977           00248                         ANDLW   0X77
00D6   3A50           00249                         XORLW   0X50
00D7   1903           00250                         BTFSC   STATUS,Z
00D8   2???           00251                         GOTO    ALLEGRO_0
00D9   0808           00252                         MOVF    PORTD,W
00DA   3977           00253                         ANDLW   0X77
00DB   3A51           00254                         XORLW   0X51
00DC   1903           00255                         BTFSC   STATUS,Z
00DD   2???           00256                         GOTO    ALLEGRO_2
00DE   0808           00257                         MOVF    PORTD,W
00DF   3977           00258                         ANDLW   0X77
00E0   3A52           00259                         XORLW   0X52
00E1   1903           00260                         BTFSC   STATUS,Z
00E2   2???           00261                         GOTO    ALLEGRO_3
00E3   0808           00262                         MOVF    PORTD,W
00E4   3977           00263                         ANDLW   0X77
00E5   3A53           00264                         XORLW   0X53
00E6   1903           00265                         BTFSC   STATUS,Z
00E7   2???           00266                         GOTO    ALLEGRO_4
00E8   0808           00267                         MOVF    PORTD,W
00E9   3977           00268                         ANDLW   0X77
00EA   3A54           00269                         XORLW   0X54
00EB   1903           00270                         BTFSC   STATUS,Z
00EC   2???           00271                         GOTO    ALLEGRO_5
00ED   0808           00272                         MOVF    PORTD,W
00EE   3977           00273                         ANDLW   0X77
00EF   3A55           00274                         XORLW   0X55
00F0   1903           00275                         BTFSC   STATUS,Z
00F1   2???           00276                         GOTO    ALLEGRO_6
00F2   0808           00277                         MOVF    PORTD,W
00F3   3977           00278                         ANDLW   0X77
00F4   3A56           00279                         XORLW   0X56
00F5   1903           00280                         BTFSC   STATUS,Z
00F6   2???           00281                         GOTO    ALLEGRO_7
00F7   0808           00282                         MOVF    PORTD,W
00F8   3977           00283                         ANDLW   0X77
00F9   3A57           00284                         XORLW   0X57
00FA   1903           00285                         BTFSC   STATUS,Z
00FB   2???           00286                         GOTO    ALLEGRO_8
                      00287 
00FC   0808           00288                         MOVF    PORTD,W         ;PRESTO
00FD   3970           00289                         ANDLW   0X70
00FE   3A60           00290                         XORLW   0X60
00FF   1903           00291                         BTFSC   STATUS,Z
0100   2???           00292                         GOTO    PRESTO
                      00293 
0101   0808           00294                         MOVF    PORTD,W         ;PRESTISSIMO
0102   3970           00295                         ANDLW   0X70
0103   3A70           00296                         XORLW   0X70
0104   1903           00297                         BTFSC   STATUS,Z
0105   2???           00298                         GOTO    PRESTISSIMO
0106   2???           00299                         GOTO    INICIO
MPASM  5.49                     METRONOMO.ASM   5-6-2018  16:23:18         PAGE  7


LOC  OBJECT CODE     LINE SOURCE TEXT
  VALUE

                      00300                         
                      00301                         
                      00302 ;***********************(BPM)************************************
                      00303 
0107   1606           00304 LARGHETTO_0     BSF             PORTB,.4        ;LARGHETTO
0108   1686           00305                         BSF             PORTB,.5
0109   2???           00306                         CALL    _20MS
010A   1206           00307                         BCF             PORTB,.4
010B   1286           00308                         BCF             PORTB,.5
010C   3003           00309                         MOVLW   .3
010D   00E4           00310                         MOVWF   0X64
010E   30DE           00311                         MOVLW   .222
010F   00E5           00312                         MOVWF   0X65
0110   30F7           00313                         MOVLW   .247
0111   00E6           00314                         MOVWF   0X66
0112   2???           00315                         CALL    ST3V                    
0113   2???           00316                         GOTO    LARGHETTO_0
                      00317 
0114   1606           00318 LARGHETTO_2     BSF             PORTB,.4        
0115   1686           00319                         BSF             PORTB,.5
0116   2???           00320                         CALL    _20MS
0117   1206           00321                         BCF             PORTB,.4
0118   1286           00322                         BCF             PORTB,.5
0119   30C9           00323                         MOVLW   .201
011A   00E4           00324                         MOVWF   0X64
011B   3002           00325                         MOVLW   .2
011C   00E5           00326                         MOVWF   0X65
011D   3095           00327                         MOVLW   .149
011E   00E6           00328                         MOVWF   0X66
011F   2???           00329                         CALL    ST3V
0120   1706           00330                         BSF             PORTB,.6
0121   1786           00331                         BSF             PORTB,.7
0122   2???           00332                         CALL    _10MS
0123   1306           00333                         BCF             PORTB,.6
0124   1386           00334                         BCF             PORTB,.7
0125   30C9           00335                         MOVLW   .201
0126   00E4           00336                         MOVWF   0X64
0127   3002           00337                         MOVLW   .2
0128   00E5           00338                         MOVWF   0X65
0129   3095           00339                         MOVLW   .149
012A   00E6           00340                         MOVWF   0X66
012B   2???           00341                         CALL    ST3V
012C   2???           00342                         CALL    _10MS
012D   2???           00343                         GOTO    LARGHETTO_2
                      00344 
012E   1606           00345 LARGHETTO_3     BSF             PORTB,.4        
012F   1686           00346                         BSF             PORTB,.5
0130   2???           00347                         CALL    _20MS
0131   1206           00348                         BCF             PORTB,.4
0132   1286           00349                         BCF             PORTB,.5
0133   2???           00350                         CALL    TLO_3
0134   3002           00351                         MOVLW   .2
0135   00A0           00352                         MOVWF   0X20
MPASM  5.49                     METRONOMO.ASM   5-6-2018  16:23:18         PAGE  8


LOC  OBJECT CODE     LINE SOURCE TEXT
  VALUE

0136   1706           00353                         BSF             PORTB,.6
0137   1786           00354                         BSF             PORTB,.7
0138   2???           00355                         CALL    _10MS
0139   1306           00356                         BCF             PORTB,.6
013A   1386           00357                         BCF             PORTB,.7
013B   2???           00358                         CALL    TLO_3
013C   2???           00359                         CALL    _10MS
013D   0BA0           00360                         DECFSZ  0X20,F
013E   2???           00361                         GOTO    $-8
013F   2???           00362                         GOTO    LARGHETTO_3
                      00363 
0140   1606           00364 LARGHETTO_4     BSF             PORTB,.4        
0141   1686           00365                         BSF             PORTB,.5
0142   2???           00366                         CALL    _20MS
0143   1206           00367                         BCF             PORTB,.4
0144   1286           00368                         BCF             PORTB,.5
0145   2???           00369                         CALL    TLO_4
0146   3003           00370                         MOVLW   .3
0147   00A0           00371                         MOVWF   0X20
0148   1706           00372                         BSF             PORTB,.6
0149   1786           00373                         BSF             PORTB,.7
014A   2???           00374                         CALL    _10MS
014B   1306           00375                         BCF             PORTB,.6
014C   1386           00376                         BCF             PORTB,.7
014D   2???           00377                         CALL    TLO_4
014E   2???           00378                         CALL    _10MS
014F   0BA0           00379                         DECFSZ  0X20,F
0150   2???           00380                         GOTO    $-8
0151   2???           00381                         GOTO    LARGHETTO_4
                      00382 
0152   1606           00383 LARGHETTO_5     BSF             PORTB,.4        
0153   1686           00384                         BSF             PORTB,.5
0154   2???           00385                         CALL    _20MS
0155   1206           00386                         BCF             PORTB,.4
0156   1286           00387                         BCF             PORTB,.5
0157   2???           00388                         CALL    TLO_5
0158   3004           00389                         MOVLW   .4
0159   00A0           00390                         MOVWF   0X20
015A   1706           00391                         BSF             PORTB,.6
015B   1786           00392                         BSF             PORTB,.7
015C   2???           00393                         CALL    _10MS
015D   1306           00394                         BCF             PORTB,.6
015E   1386           00395                         BCF             PORTB,.7
015F   2???           00396                         CALL    TLO_5
0160   2???           00397                         CALL    _10MS
0161   0BA0           00398                         DECFSZ  0X20,F
0162   2???           00399                         GOTO    $-8
0163   2???           00400                         GOTO    LARGHETTO_5
0164   1606           00401 LARGHETTO_6     BSF             PORTB,.4        
0165   1686           00402                         BSF             PORTB,.5
0166   2???           00403                         CALL    _20MS
0167   1206           00404                         BCF             PORTB,.4
0168   1286           00405                         BCF             PORTB,.5
MPASM  5.49                     METRONOMO.ASM   5-6-2018  16:23:18         PAGE  9


LOC  OBJECT CODE     LINE SOURCE TEXT
  VALUE

0169   2???           00406                         CALL    TLO_6
016A   3005           00407                         MOVLW   .5
016B   00A0           00408                         MOVWF   0X20
016C   1706           00409                         BSF             PORTB,.6
016D   1786           00410                         BSF             PORTB,.7
016E   2???           00411                         CALL    _10MS
016F   1306           00412                         BCF             PORTB,.6
0170   1386           00413                         BCF             PORTB,.7
0171   2???           00414                         CALL    TLO_6
0172   2???           00415                         CALL    _10MS
0173   0BA0           00416                         DECFSZ  0X20,F
0174   2???           00417                         GOTO    $-8     
0175   2???           00418                         GOTO    LARGHETTO_6
                      00419 
0176   1606           00420 LARGHETTO_7     BSF             PORTB,.4        
0177   1686           00421                         BSF             PORTB,.5
0178   2???           00422                         CALL    _20MS
0179   1206           00423                         BCF             PORTB,.4
017A   1286           00424                         BCF             PORTB,.5
017B   2???           00425                         CALL    TLO_7
017C   3006           00426                         MOVLW   .6
017D   00A0           00427                         MOVWF   0X20
017E   1706           00428                         BSF             PORTB,.6
017F   1786           00429                         BSF             PORTB,.7
0180   2???           00430                         CALL    _10MS
0181   1306           00431                         BCF             PORTB,.6
0182   1386           00432                         BCF             PORTB,.7
0183   2???           00433                         CALL    TLO_7
0184   2???           00434                         CALL    _10MS
0185   0BA0           00435                         DECFSZ  0X20,F
0186   2???           00436                         GOTO    $-8
0187   2???           00437                         GOTO    LARGHETTO_7
                      00438 
0188   1606           00439 LARGHETTO_8     BSF             PORTB,.4        
0189   1686           00440                         BSF             PORTB,.5
018A   2???           00441                         CALL    _20MS
018B   1206           00442                         BCF             PORTB,.4
018C   1286           00443                         BCF             PORTB,.5
018D   2???           00444                         CALL    TLO_8
018E   3007           00445                         MOVLW   .7
018F   00A0           00446                         MOVWF   0X20
0190   1706           00447                         BSF             PORTB,.6
0191   1786           00448                         BSF             PORTB,.7
0192   2???           00449                         CALL    _10MS
0193   1306           00450                         BCF             PORTB,.6
0194   1386           00451                         BCF             PORTB,.7
0195   2???           00452                         CALL    TLO_8
0196   2???           00453                         CALL    _10MS
0197   0BA0           00454                         DECFSZ  0X20,F
0198   2???           00455                         GOTO    $-8
0199   2???           00456                         GOTO    LARGHETTO_8
                      00457         ;LARGO
019A   1606           00458 LARGO_0         BSF             PORTB,.4        
MPASM  5.49                     METRONOMO.ASM   5-6-2018  16:23:18         PAGE 10


LOC  OBJECT CODE     LINE SOURCE TEXT
  VALUE

019B   1686           00459                         BSF             PORTB,.5
019C   2???           00460                         CALL    _20MS
019D   1206           00461                         BCF             PORTB,.4
019E   1286           00462                         BCF             PORTB,.5
019F   3084           00463                         MOVLW   .132
01A0   00E4           00464                         MOVWF   0X64
01A1   300C           00465                         MOVLW   .12
01A2   00E5           00466                         MOVWF   0X65
01A3   309B           00467                         MOVLW   .155
01A4   00E6           00468                         MOVWF   0X66
01A5   2???           00469                         CALL    ST3V
01A6   2???           00470                         GOTO    LARGO_0
                      00471 
01A7   1606           00472 LARGO_2         BSF             PORTB,.4        
01A8   1686           00473                         BSF             PORTB,.5
01A9   2???           00474                         CALL    _20MS
01AA   1206           00475                         BCF             PORTB,.4
01AB   1286           00476                         BCF             PORTB,.5
01AC   302D           00477                         MOVLW   .45
01AD   00E4           00478                         MOVWF   0X64
01AE   3099           00479                         MOVLW   .153
01AF   00E5           00480                         MOVWF   0X65
01B0   3011           00481                         MOVLW   .17
01B1   00E6           00482                         MOVWF   0X66
01B2   2???           00483                         CALL    ST3V
01B3   0000           00484                         NOP
01B4   1706           00485                         BSF             PORTB,.6
01B5   1786           00486                         BSF             PORTB,.7
01B6   2???           00487                         CALL    _10MS
01B7   1306           00488                         BCF             PORTB,.6
01B8   1386           00489                         BCF             PORTB,.7
01B9   302D           00490                         MOVLW   .45
01BA   00E4           00491                         MOVWF   0X64
01BB   3099           00492                         MOVLW   .153
01BC   00E5           00493                         MOVWF   0X65
01BD   3011           00494                         MOVLW   .17
01BE   00E6           00495                         MOVWF   0X66
01BF   2???           00496                         CALL    ST3V
01C0   0000           00497                         NOP
01C1   2???           00498                         CALL    _10MS                           
01C2   2???           00499                         GOTO    LARGO_2
                      00500 
01C3   1606           00501 LARGO_3         BSF             PORTB,.4        
01C4   1686           00502                         BSF             PORTB,.5
01C5   2???           00503                         CALL    _20MS
01C6   1206           00504                         BCF             PORTB,.4
01C7   1286           00505                         BCF             PORTB,.5
01C8   2???           00506                         CALL    TLA_3
01C9   3002           00507                         MOVLW   .2
01CA   00A0           00508                         MOVWF   0X20
01CB   1706           00509                         BSF             PORTB,.6
01CC   1786           00510                         BSF             PORTB,.7
01CD   2???           00511                         CALL    _10MS
MPASM  5.49                     METRONOMO.ASM   5-6-2018  16:23:18         PAGE 11


LOC  OBJECT CODE     LINE SOURCE TEXT
  VALUE

01CE   1306           00512                         BCF             PORTB,.6
01CF   1386           00513                         BCF             PORTB,.7
01D0   2???           00514                         CALL    TLA_3
01D1   2???           00515                         CALL    _10MS
01D2   0BA0           00516                         DECFSZ  0X20,F
01D3   2???           00517                         GOTO    $-8                     
01D4   2???           00518                         GOTO    LARGO_3
01D5   1606           00519 LARGO_4         BSF             PORTB,.4        
01D6   1686           00520                         BSF             PORTB,.5
01D7   2???           00521                         CALL    _20MS
01D8   1206           00522                         BCF             PORTB,.4
01D9   1286           00523                         BCF             PORTB,.5
01DA   2???           00524                         CALL    TLA_4
01DB   3003           00525                         MOVLW   .3
01DC   00A0           00526                         MOVWF   0X20
01DD   1706           00527                         BSF             PORTB,.6
01DE   1786           00528                         BSF             PORTB,.7
01DF   2???           00529                         CALL    _10MS
01E0   1306           00530                         BCF             PORTB,.6
01E1   1386           00531                         BCF             PORTB,.7
01E2   2???           00532                         CALL    TLA_4
01E3   2???           00533                         CALL    _10MS
01E4   0BA0           00534                         DECFSZ  0X20,F
01E5   2???           00535                         GOTO    $-8                     
01E6   2???           00536                         GOTO    LARGO_4
01E7   1606           00537 LARGO_5         BSF             PORTB,.4        
01E8   1686           00538                         BSF             PORTB,.5
01E9   2???           00539                         CALL    _20MS
01EA   1206           00540                         BCF             PORTB,.4
01EB   1286           00541                         BCF             PORTB,.5
01EC   2???           00542                         CALL    TLA_5
01ED   3004           00543                         MOVLW   .4
01EE   00A0           00544                         MOVWF   0X20
01EF   1706           00545                         BSF             PORTB,.6
01F0   1786           00546                         BSF             PORTB,.7
01F1   2???           00547                         CALL    _10MS
01F2   1306           00548                         BCF             PORTB,.6
01F3   1386           00549                         BCF             PORTB,.7
01F4   2???           00550                         CALL    TLA_5
01F5   2???           00551                         CALL    _10MS
01F6   0BA0           00552                         DECFSZ  0X20,F
01F7   2???           00553                         GOTO    $-8                             
01F8   2???           00554                         GOTO    LARGO_5
01F9   1606           00555 LARGO_6         BSF             PORTB,.4        
01FA   1686           00556                         BSF             PORTB,.5
01FB   2???           00557                         CALL    _20MS
01FC   1206           00558                         BCF             PORTB,.4
01FD   1286           00559                         BCF             PORTB,.5
01FE   2???           00560                         CALL    TLA_6
01FF   3005           00561                         MOVLW   .5
0200   00A0           00562                         MOVWF   0X20
0201   1706           00563                         BSF             PORTB,.6
0202   1786           00564                         BSF             PORTB,.7
MPASM  5.49                     METRONOMO.ASM   5-6-2018  16:23:18         PAGE 12


LOC  OBJECT CODE     LINE SOURCE TEXT
  VALUE

0203   2???           00565                         CALL    _10MS
0204   1306           00566                         BCF             PORTB,.6
0205   1386           00567                         BCF             PORTB,.7
0206   2???           00568                         CALL    TLA_6
0207   2???           00569                         CALL    _10MS
0208   0BA0           00570                         DECFSZ  0X20,F
0209   2???           00571                         GOTO    $-8                     
020A   2???           00572                         GOTO    LARGO_6
020B   1606           00573 LARGO_7         BSF             PORTB,.4        
020C   1686           00574                         BSF             PORTB,.5
020D   2???           00575                         CALL    _20MS
020E   1206           00576                         BCF             PORTB,.4
020F   1286           00577                         BCF             PORTB,.5
0210   2???           00578                         CALL    TLA_7
0211   3006           00579                         MOVLW   .6
0212   00A0           00580                         MOVWF   0X20
0213   1706           00581                         BSF             PORTB,.6
0214   1786           00582                         BSF             PORTB,.7
0215   2???           00583                         CALL    _10MS
0216   1306           00584                         BCF             PORTB,.6
0217   1386           00585                         BCF             PORTB,.7
0218   2???           00586                         CALL    TLA_7
0219   2???           00587                         CALL    _10MS
021A   0BA0           00588                         DECFSZ  0X20,F
021B   2???           00589                         GOTO    $-8             
021C   2???           00590                         GOTO    LARGO_7
021D   1606           00591 LARGO_8         BSF             PORTB,.4        
021E   1686           00592                         BSF             PORTB,.5
021F   2???           00593                         CALL    _20MS
0220   1206           00594                         BCF             PORTB,.4
0221   1286           00595                         BCF             PORTB,.5
0222   2???           00596                         CALL    TLA_8
0223   3007           00597                         MOVLW   .7
0224   00A0           00598                         MOVWF   0X20
0225   1706           00599                         BSF             PORTB,.6
0226   1786           00600                         BSF             PORTB,.7
0227   2???           00601                         CALL    _10MS
0228   1306           00602                         BCF             PORTB,.6
0229   1386           00603                         BCF             PORTB,.7
022A   2???           00604                         CALL    TLA_8
022B   2???           00605                         CALL    _10MS
022C   0BA0           00606                         DECFSZ  0X20,F
022D   2???           00607                         GOTO    $-8                     
022E   2???           00608                         GOTO    LARGO_8
                      00609 ;ADAGIO
                      00610 
022F   1606           00611 ADAGIO_0        BSF             PORTB,.4        
0230   1686           00612                         BSF             PORTB,.5
0231   2???           00613                         CALL    _20MS
0232   1206           00614                         BCF             PORTB,.4
0233   1286           00615                         BCF             PORTB,.5
0234   30BA           00616                         MOVLW   .186
0235   00E4           00617                         MOVWF   0X64
MPASM  5.49                     METRONOMO.ASM   5-6-2018  16:23:18         PAGE 13


LOC  OBJECT CODE     LINE SOURCE TEXT
  VALUE

0236   3006           00618                         MOVLW   .6
0237   00E5           00619                         MOVWF   0X65
0238   3084           00620                         MOVLW   .132
0239   00E6           00621                         MOVWF   0X66
023A   2???           00622                         CALL    ST3V
023B   0000           00623                         NOP
023C   2???           00624                         GOTO    ADAGIO_0
                      00625 
023D   1606           00626 ADAGIO_2        BSF             PORTB,.4        
023E   1686           00627                         BSF             PORTB,.5
023F   2???           00628                         CALL    _20MS
0240   1206           00629                         BCF             PORTB,.4
0241   1286           00630                         BCF             PORTB,.5
0242   303A           00631                         MOVLW   .58
0243   00E4           00632                         MOVWF   0X64
0244   3090           00633                         MOVLW   .144
0245   00E5           00634                         MOVWF   0X65
0246   3008           00635                         MOVLW   .8
0247   00E6           00636                         MOVWF   0X66
0248   2???           00637                         CALL    ST3V
0249   1706           00638                         BSF             PORTB,.6
024A   1786           00639                         BSF             PORTB,.7
024B   2???           00640                         CALL    _10MS
024C   1306           00641                         BCF             PORTB,.6
024D   1386           00642                         BCF             PORTB,.7
024E   303A           00643                         MOVLW   .58
024F   00E4           00644                         MOVWF   0X64
0250   3090           00645                         MOVLW   .144
0251   00E5           00646                         MOVWF   0X65
0252   3008           00647                         MOVLW   .8
0253   00E6           00648                         MOVWF   0X66
0254   2???           00649                         CALL    ST3V
0255   2???           00650                         CALL    _10MS                           
0256   2???           00651                         GOTO    ADAGIO_2
                      00652 
0257   1606           00653 ADAGIO_3        BSF             PORTB,.4        
0258   1686           00654                         BSF             PORTB,.5
0259   2???           00655                         CALL    _20MS
025A   1206           00656                         BCF             PORTB,.4
025B   1286           00657                         BCF             PORTB,.5
025C   2???           00658                         CALL    AN_3
025D   3002           00659                         MOVLW   .2
025E   00A0           00660                         MOVWF   0X20
025F   1706           00661                         BSF             PORTB,.6
0260   1786           00662                         BSF             PORTB,.7
0261   2???           00663                         CALL    _10MS
0262   1306           00664                         BCF             PORTB,.6
0263   1386           00665                         BCF             PORTB,.7
0264   2???           00666                         CALL    AN_3
0265   2???           00667                         CALL    _10MS
0266   0BA0           00668                         DECFSZ  0X20,F
0267   2???           00669                         GOTO    $-8                     
0268   2???           00670                         GOTO    ADAGIO_3
MPASM  5.49                     METRONOMO.ASM   5-6-2018  16:23:18         PAGE 14


LOC  OBJECT CODE     LINE SOURCE TEXT
  VALUE

                      00671 
0269   1606           00672 ADAGIO_4        BSF             PORTB,.4        
026A   1686           00673                         BSF             PORTB,.5
026B   2???           00674                         CALL    _20MS
026C   1206           00675                         BCF             PORTB,.4
026D   1286           00676                         BCF             PORTB,.5
026E   2???           00677                         CALL    AN_4
026F   3003           00678                         MOVLW   .3
0270   00A0           00679                         MOVWF   0X20
0271   1706           00680                         BSF             PORTB,.6
0272   1786           00681                         BSF             PORTB,.7
0273   2???           00682                         CALL    _10MS
0274   1306           00683                         BCF             PORTB,.6
0275   1386           00684                         BCF             PORTB,.7
0276   2???           00685                         CALL    AN_4
0277   2???           00686                         CALL    _10MS
0278   0BA0           00687                         DECFSZ  0X20,F
0279   2???           00688                         GOTO    $-8                     
027A   2???           00689                         GOTO    ADAGIO_4
                      00690 
027B   1606           00691 ADAGIO_5        BSF             PORTB,.4        
027C   1686           00692                         BSF             PORTB,.5
027D   2???           00693                         CALL    _20MS
027E   1206           00694                         BCF             PORTB,.4
027F   1286           00695                         BCF             PORTB,.5
0280   2???           00696                         CALL    AN_5
0281   3004           00697                         MOVLW   .4
0282   00A0           00698                         MOVWF   0X20
0283   1706           00699                         BSF             PORTB,.6
0284   1786           00700                         BSF             PORTB,.7
0285   2???           00701                         CALL    _10MS
0286   1306           00702                         BCF             PORTB,.6
0287   1386           00703                         BCF             PORTB,.7
0288   2???           00704                         CALL    AN_5
0289   2???           00705                         CALL    _10MS
028A   0BA0           00706                         DECFSZ  0X20,F
028B   2???           00707                         GOTO    $-8                             
028C   2???           00708                         GOTO    ADAGIO_5
                      00709 
028D   1606           00710 ADAGIO_6        BSF             PORTB,.4        
028E   1686           00711                         BSF             PORTB,.5
028F   2???           00712                         CALL    _20MS
0290   1206           00713                         BCF             PORTB,.4
0291   1286           00714                         BCF             PORTB,.5
0292   2???           00715                         CALL    AN_6
0293   3005           00716                         MOVLW   .5
0294   00A0           00717                         MOVWF   0X20
0295   1706           00718                         BSF             PORTB,.6
0296   1786           00719                         BSF             PORTB,.7
0297   2???           00720                         CALL    _10MS
0298   1306           00721                         BCF             PORTB,.6
0299   1386           00722                         BCF             PORTB,.7
029A   2???           00723                         CALL    AN_6
MPASM  5.49                     METRONOMO.ASM   5-6-2018  16:23:18         PAGE 15


LOC  OBJECT CODE     LINE SOURCE TEXT
  VALUE

029B   2???           00724                         CALL    _10MS
029C   0BA0           00725                         DECFSZ  0X20,F
029D   2???           00726                         GOTO    $-8                     
029E   2???           00727                         GOTO    ADAGIO_6
                      00728 
029F   1606           00729 ADAGIO_7        BSF             PORTB,.4        
02A0   1686           00730                         BSF             PORTB,.5
02A1   2???           00731                         CALL    _20MS
02A2   1206           00732                         BCF             PORTB,.4
02A3   1286           00733                         BCF             PORTB,.5
02A4   2???           00734                         CALL    AN_7
02A5   3006           00735                         MOVLW   .6
02A6   00A0           00736                         MOVWF   0X20
02A7   1706           00737                         BSF             PORTB,.6
02A8   1786           00738                         BSF             PORTB,.7
02A9   2???           00739                         CALL    _10MS
02AA   1306           00740                         BCF             PORTB,.6
02AB   1386           00741                         BCF             PORTB,.7
02AC   2???           00742                         CALL    AN_7
02AD   2???           00743                         CALL    _10MS
02AE   0BA0           00744                         DECFSZ  0X20,F
02AF   2???           00745                         GOTO    $-8             
02B0   2???           00746                         GOTO    ADAGIO_7
                      00747 
02B1   1606           00748 ADAGIO_8        BSF             PORTB,.4        
02B2   1686           00749                         BSF             PORTB,.5
02B3   2???           00750                         CALL    _20MS
02B4   1206           00751                         BCF             PORTB,.4
02B5   1286           00752                         BCF             PORTB,.5
02B6   2???           00753                         CALL    AN_8
02B7   3007           00754                         MOVLW   .7
02B8   00A0           00755                         MOVWF   0X20
02B9   1706           00756                         BSF             PORTB,.6
02BA   1786           00757                         BSF             PORTB,.7
02BB   2???           00758                         CALL    _10MS
02BC   1306           00759                         BCF             PORTB,.6
02BD   1386           00760                         BCF             PORTB,.7
02BE   2???           00761                         CALL    AN_8
02BF   2???           00762                         CALL    _10MS
02C0   0BA0           00763                         DECFSZ  0X20,F
02C1   2???           00764                         GOTO    $-8                     
02C2   2???           00765                         GOTO    ADAGIO_8
                      00766 
                      00767 ;ANDANTE
                      00768 
02C3   1606           00769 ANDANTE_0       BSF             PORTB,.4        
02C4   1686           00770                         BSF             PORTB,.5
02C5   2???           00771                         CALL    _20MS
02C6   1206           00772                         BCF             PORTB,.4
02C7   1286           00773                         BCF             PORTB,.5
02C8   3012           00774                         MOVLW   .18
02C9   00E4           00775                         MOVWF   0X64
02CA   309C           00776                         MOVLW   .156
MPASM  5.49                     METRONOMO.ASM   5-6-2018  16:23:18         PAGE 16


LOC  OBJECT CODE     LINE SOURCE TEXT
  VALUE

02CB   00E5           00777                         MOVWF   0X65
02CC   302D           00778                         MOVLW   .45
02CD   00E6           00779                         MOVWF   0X66
02CE   2???           00780                         CALL    ST3V
02CF   2???           00781                         GOTO    ANDANTE_0
                      00782 
02D0   1606           00783 ANDANTE_2       BSF             PORTB,.4        
02D1   1686           00784                         BSF             PORTB,.5
02D2   2???           00785                         CALL    _20MS
02D3   1206           00786                         BCF             PORTB,.4
02D4   1286           00787                         BCF             PORTB,.5
02D5   307E           00788                         MOVLW   .126
02D6   00E4           00789                         MOVWF   0X64
02D7   3003           00790                         MOVLW   .3
02D8   00E5           00791                         MOVWF   0X65
02D9   3087           00792                         MOVLW   .135
02DA   00E6           00793                         MOVWF   0X66
02DB   2???           00794                         CALL    ST3V
02DC   0000           00795                         NOP
02DD   0000           00796                         NOP
02DE   1706           00797                         BSF             PORTB,.6
02DF   1786           00798                         BSF             PORTB,.7
02E0   2???           00799                         CALL    _10MS
02E1   1306           00800                         BCF             PORTB,.6
02E2   1386           00801                         BCF             PORTB,.7
02E3   307E           00802                         MOVLW   .126
02E4   00E4           00803                         MOVWF   0X64
02E5   3003           00804                         MOVLW   .3
02E6   00E5           00805                         MOVWF   0X65
02E7   3087           00806                         MOVLW   .135
02E8   00E6           00807                         MOVWF   0X66
02E9   2???           00808                         CALL    ST3V
02EA   0000           00809                         NOP
02EB   0000           00810                         NOP
02EC   2???           00811                         CALL    _10MS                           
02ED   2???           00812                         GOTO    ANDANTE_2
                      00813 
02EE   1606           00814 ANDANTE_3       BSF             PORTB,.4        
02EF   1686           00815                         BSF             PORTB,.5
02F0   2???           00816                         CALL    _20MS
02F1   1206           00817                         BCF             PORTB,.4
02F2   1286           00818                         BCF             PORTB,.5
02F3   2???           00819                         CALL    ANT_3
02F4   3002           00820                         MOVLW   .2
02F5   00A0           00821                         MOVWF   0X20
02F6   1706           00822                         BSF             PORTB,.6
02F7   1786           00823                         BSF             PORTB,.7
02F8   2???           00824                         CALL    _10MS
02F9   1306           00825                         BCF             PORTB,.6
02FA   1386           00826                         BCF             PORTB,.7
02FB   2???           00827                         CALL    ANT_3
02FC   2???           00828                         CALL    _10MS
02FD   0BA0           00829                         DECFSZ  0X20,F
MPASM  5.49                     METRONOMO.ASM   5-6-2018  16:23:18         PAGE 17


LOC  OBJECT CODE     LINE SOURCE TEXT
  VALUE

02FE   2???           00830                         GOTO    $-8                     
02FF   2???           00831                         GOTO    ANDANTE_3
                      00832 
0300   1606           00833 ANDANTE_4       BSF             PORTB,.4        
0301   1686           00834                         BSF             PORTB,.5
0302   2???           00835                         CALL    _20MS
0303   1206           00836                         BCF             PORTB,.4
0304   1286           00837                         BCF             PORTB,.5
0305   2???           00838                         CALL    ANT_4
0306   3003           00839                         MOVLW   .3
0307   00A0           00840                         MOVWF   0X20
0308   1706           00841                         BSF             PORTB,.6
0309   1786           00842                         BSF             PORTB,.7
030A   2???           00843                         CALL    _10MS
030B   1306           00844                         BCF             PORTB,.6
030C   1386           00845                         BCF             PORTB,.7
030D   2???           00846                         CALL    ANT_4
030E   2???           00847                         CALL    _10MS
030F   0BA0           00848                         DECFSZ  0X20,F
0310   2???           00849                         GOTO    $-8                     
0311   2???           00850                         GOTO    ANDANTE_4
                      00851 
0312   1606           00852 ANDANTE_5       BSF             PORTB,.4        
0313   1686           00853                         BSF             PORTB,.5
0314   2???           00854                         CALL    _20MS
0315   1206           00855                         BCF             PORTB,.4
0316   1286           00856                         BCF             PORTB,.5
0317   2???           00857                         CALL    ANT_5
0318   3004           00858                         MOVLW   .4
0319   00A0           00859                         MOVWF   0X20
031A   1706           00860                         BSF             PORTB,.6
031B   1786           00861                         BSF             PORTB,.7
031C   2???           00862                         CALL    _10MS
031D   1306           00863                         BCF             PORTB,.6
031E   1386           00864                         BCF             PORTB,.7
031F   2???           00865                         CALL    ANT_5
0320   2???           00866                         CALL    _10MS
0321   0BA0           00867                         DECFSZ  0X20,F
0322   2???           00868                         GOTO    $-8                             
0323   2???           00869                         GOTO    ANDANTE_5
                      00870 
0324   1606           00871 ANDANTE_6       BSF             PORTB,.4        
0325   1686           00872                         BSF             PORTB,.5
0326   2???           00873                         CALL    _20MS
0327   1206           00874                         BCF             PORTB,.4
0328   1286           00875                         BCF             PORTB,.5
0329   2???           00876                         CALL    ANT_6
032A   3005           00877                         MOVLW   .5
032B   00A0           00878                         MOVWF   0X20
032C   1706           00879                         BSF             PORTB,.6
032D   1786           00880                         BSF             PORTB,.7
032E   2???           00881                         CALL    _10MS
032F   1306           00882                         BCF             PORTB,.6
MPASM  5.49                     METRONOMO.ASM   5-6-2018  16:23:18         PAGE 18


LOC  OBJECT CODE     LINE SOURCE TEXT
  VALUE

0330   1386           00883                         BCF             PORTB,.7
0331   2???           00884                         CALL    ANT_6
0332   2???           00885                         CALL    _10MS
0333   0BA0           00886                         DECFSZ  0X20,F
0334   2???           00887                         GOTO    $-8                     
0335   2???           00888                         GOTO    ANDANTE_6
                      00889 
0336   1606           00890 ANDANTE_7       BSF             PORTB,.4        
0337   1686           00891                         BSF             PORTB,.5
0338   2???           00892                         CALL    _20MS
0339   1206           00893                         BCF             PORTB,.4
033A   1286           00894                         BCF             PORTB,.5
033B   2???           00895                         CALL    ANT_7
033C   3006           00896                         MOVLW   .6
033D   00A0           00897                         MOVWF   0X20
033E   1706           00898                         BSF             PORTB,.6
033F   1786           00899                         BSF             PORTB,.7
0340   2???           00900                         CALL    _10MS
0341   1306           00901                         BCF             PORTB,.6
0342   1386           00902                         BCF             PORTB,.7
0343   2???           00903                         CALL    ANT_7
0344   2???           00904                         CALL    _10MS
0345   0BA0           00905                         DECFSZ  0X20,F
0346   2???           00906                         GOTO    $-8             
0347   2???           00907                         GOTO    ANDANTE_7
                      00908 
0348   1606           00909 ANDANTE_8       BSF             PORTB,.4        
0349   1686           00910                         BSF             PORTB,.5
034A   2???           00911                         CALL    _20MS
034B   1206           00912                         BCF             PORTB,.4
034C   1286           00913                         BCF             PORTB,.5
034D   2???           00914                         CALL    ANT_8
034E   3007           00915                         MOVLW   .7
034F   00A0           00916                         MOVWF   0X20
0350   1706           00917                         BSF             PORTB,.6
0351   1786           00918                         BSF             PORTB,.7
0352   2???           00919                         CALL    _10MS
0353   1306           00920                         BCF             PORTB,.6
0354   1386           00921                         BCF             PORTB,.7
0355   2???           00922                         CALL    ANT_8
0356   2???           00923                         CALL    _10MS
0357   0BA0           00924                         DECFSZ  0X20,F
0358   2???           00925                         GOTO    $-8                     
0359   2???           00926                         GOTO    ANDANTE_8
                      00927 ;MODERATO
035A   1606           00928 MODERATO_0      BSF             PORTB,.4        
035B   1686           00929                         BSF             PORTB,.5
035C   2???           00930                         CALL    _20MS
035D   1206           00931                         BCF             PORTB,.4
035E   1286           00932                         BCF             PORTB,.5
035F   3079           00933                         MOVLW   .121
0360   00E4           00934                         MOVWF   0X64
0361   30C9           00935                         MOVLW   .201
MPASM  5.49                     METRONOMO.ASM   5-6-2018  16:23:18         PAGE 19


LOC  OBJECT CODE     LINE SOURCE TEXT
  VALUE

0362   00E5           00936                         MOVWF   0X65
0363   3003           00937                         MOVLW   .3
0364   00E6           00938                         MOVWF   0X66
0365   2???           00939                         CALL    ST3V
0366   2???           00940                         GOTO    MODERATO_0
                      00941 
0367   1606           00942 MODERATO_2      BSF             PORTB,.4        
0368   1686           00943                         BSF             PORTB,.5
0369   2???           00944                         CALL    _20MS
036A   1206           00945                         BCF             PORTB,.4
036B   1286           00946                         BCF             PORTB,.5
036C   301C           00947                         MOVLW   .28
036D   00E4           00948                         MOVWF   0X64
036E   302B           00949                         MOVLW   .43
036F   00E5           00950                         MOVWF   0X65
0370   3023           00951                         MOVLW   .35
0371   00E6           00952                         MOVWF   0X66
0372   2???           00953                         CALL    ST3V
0373   1706           00954                         BSF             PORTB,.6
0374   1786           00955                         BSF             PORTB,.7
0375   2???           00956                         CALL    _10MS
0376   1306           00957                         BCF             PORTB,.6
0377   1386           00958                         BCF             PORTB,.7
0378   301C           00959                         MOVLW   .28
0379   00E4           00960                         MOVWF   0X64
037A   302B           00961                         MOVLW   .43
037B   00E5           00962                         MOVWF   0X65
037C   3023           00963                         MOVLW   .35
037D   00E6           00964                         MOVWF   0X66
037E   2???           00965                         CALL    ST3V
037F   2???           00966                         CALL    _10MS                           
0380   2???           00967                         GOTO    MODERATO_2
                      00968 
0381   1606           00969 MODERATO_3      BSF             PORTB,.4        
0382   1686           00970                         BSF             PORTB,.5
0383   2???           00971                         CALL    _20MS
0384   1206           00972                         BCF             PORTB,.4
0385   1286           00973                         BCF             PORTB,.5
0386   2???           00974                         CALL    MOD_3
0387   3002           00975                         MOVLW   .2
0388   00A0           00976                         MOVWF   0X20
0389   1706           00977                         BSF             PORTB,.6
038A   1786           00978                         BSF             PORTB,.7
038B   2???           00979                         CALL    _10MS
038C   1306           00980                         BCF             PORTB,.6
038D   1386           00981                         BCF             PORTB,.7
038E   2???           00982                         CALL    MOD_3
038F   2???           00983                         CALL    _10MS
0390   0BA0           00984                         DECFSZ  0X20,F
0391   2???           00985                         GOTO    $-8                     
0392   2???           00986                         GOTO    MODERATO_3
                      00987 
0393   1606           00988 MODERATO_4      BSF             PORTB,.4        
MPASM  5.49                     METRONOMO.ASM   5-6-2018  16:23:18         PAGE 20


LOC  OBJECT CODE     LINE SOURCE TEXT
  VALUE

0394   1686           00989                         BSF             PORTB,.5
0395   2???           00990                         CALL    _20MS
0396   1206           00991                         BCF             PORTB,.4
0397   1286           00992                         BCF             PORTB,.5
0398   2???           00993                         CALL    MOD_4
0399   3003           00994                         MOVLW   .3
039A   00A0           00995                         MOVWF   0X20
039B   1706           00996                         BSF             PORTB,.6
039C   1786           00997                         BSF             PORTB,.7
039D   2???           00998                         CALL    _10MS
039E   1306           00999                         BCF             PORTB,.6
039F   1386           01000                         BCF             PORTB,.7
03A0   2???           01001                         CALL    MOD_4
03A1   2???           01002                         CALL    _10MS
03A2   0BA0           01003                         DECFSZ  0X20,F
03A3   2???           01004                         GOTO    $-8                     
03A4   2???           01005                         GOTO    MODERATO_4
                      01006 
03A5   1606           01007 MODERATO_5      BSF             PORTB,.4        
03A6   1686           01008                         BSF             PORTB,.5
03A7   2???           01009                         CALL    _20MS
03A8   1206           01010                         BCF             PORTB,.4
03A9   1286           01011                         BCF             PORTB,.5
03AA   2???           01012                         CALL    MOD_5
03AB   3004           01013                         MOVLW   .4
03AC   00A0           01014                         MOVWF   0X20
03AD   1706           01015                         BSF             PORTB,.6
03AE   1786           01016                         BSF             PORTB,.7
03AF   2???           01017                         CALL    _10MS
03B0   1306           01018                         BCF             PORTB,.6
03B1   1386           01019                         BCF             PORTB,.7
03B2   2???           01020                         CALL    MOD_5
03B3   2???           01021                         CALL    _10MS
03B4   0BA0           01022                         DECFSZ  0X20,F
03B5   2???           01023                         GOTO    $-8                             
03B6   2???           01024                         GOTO    MODERATO_5
                      01025 
03B7   1606           01026 MODERATO_6      BSF             PORTB,.4        
03B8   1686           01027                         BSF             PORTB,.5
03B9   2???           01028                         CALL    _20MS
03BA   1206           01029                         BCF             PORTB,.4
03BB   1286           01030                         BCF             PORTB,.5
03BC   2???           01031                         CALL    MOD_6
03BD   3005           01032                         MOVLW   .5
03BE   00A0           01033                         MOVWF   0X20
03BF   1706           01034                         BSF             PORTB,.6
03C0   1786           01035                         BSF             PORTB,.7
03C1   2???           01036                         CALL    _10MS
03C2   1306           01037                         BCF             PORTB,.6
03C3   1386           01038                         BCF             PORTB,.7
03C4   2???           01039                         CALL    MOD_6
03C5   2???           01040                         CALL    _10MS
03C6   0BA0           01041                         DECFSZ  0X20,F
MPASM  5.49                     METRONOMO.ASM   5-6-2018  16:23:18         PAGE 21


LOC  OBJECT CODE     LINE SOURCE TEXT
  VALUE

03C7   2???           01042                         GOTO    $-8                     
03C8   2???           01043                         GOTO    MODERATO_6
                      01044 
03C9   1606           01045 MODERATO_7      BSF             PORTB,.4        
03CA   1686           01046                         BSF             PORTB,.5
03CB   2???           01047                         CALL    _20MS
03CC   1206           01048                         BCF             PORTB,.4
03CD   1286           01049                         BCF             PORTB,.5
03CE   2???           01050                         CALL    MOD_7
03CF   3006           01051                         MOVLW   .6
03D0   00A0           01052                         MOVWF   0X20
03D1   1706           01053                         BSF             PORTB,.6
03D2   1786           01054                         BSF             PORTB,.7
03D3   2???           01055                         CALL    _10MS
03D4   1306           01056                         BCF             PORTB,.6
03D5   1386           01057                         BCF             PORTB,.7
03D6   2???           01058                         CALL    MOD_7
03D7   2???           01059                         CALL    _10MS
03D8   0BA0           01060                         DECFSZ  0X20,F
03D9   2???           01061                         GOTO    $-8             
03DA   2???           01062                         GOTO    MODERATO_7
                      01063 
03DB   1606           01064 MODERATO_8      BSF             PORTB,.4        
03DC   1686           01065                         BSF             PORTB,.5
03DD   2???           01066                         CALL    _20MS
03DE   1206           01067                         BCF             PORTB,.4
03DF   1286           01068                         BCF             PORTB,.5
03E0   2???           01069                         CALL    MOD_8
03E1   3007           01070                         MOVLW   .7
03E2   00A0           01071                         MOVWF   0X20
03E3   1706           01072                         BSF             PORTB,.6
03E4   1786           01073                         BSF             PORTB,.7
03E5   2???           01074                         CALL    _10MS
03E6   1306           01075                         BCF             PORTB,.6
03E7   1386           01076                         BCF             PORTB,.7
03E8   2???           01077                         CALL    MOD_8
03E9   2???           01078                         CALL    _10MS
03EA   0BA0           01079                         DECFSZ  0X20,F
03EB   2???           01080                         GOTO    $-8                     
03EC   2???           01081                         GOTO    MODERATO_8
                      01082 
                      01083 ;ALLEGRO
03ED   1606           01084 ALLEGRO_0       BSF             PORTB,.4        
03EE   1686           01085                         BSF             PORTB,.5
03EF   2???           01086                         CALL    _20MS
03F0   1206           01087                         BCF             PORTB,.4
03F1   1286           01088                         BCF             PORTB,.5
03F2   30C9           01089                         MOVLW   .201
03F3   00E4           01090                         MOVWF   0X64
03F4   3095           01091                         MOVLW   .149
03F5   00E5           01092                         MOVWF   0X65
03F6   3002           01093                         MOVLW   .2
03F7   00E6           01094                         MOVWF   0X66
MPASM  5.49                     METRONOMO.ASM   5-6-2018  16:23:18         PAGE 22


LOC  OBJECT CODE     LINE SOURCE TEXT
  VALUE

03F8   2???           01095                         CALL    ST3V
03F9   2???           01096                         GOTO    ALLEGRO_0
                      01097 
03FA   1606           01098 ALLEGRO_2       BSF             PORTB,.4        
03FB   1686           01099                         BSF             PORTB,.5
03FC   2???           01100                         CALL    _20MS
03FD   1206           01101                         BCF             PORTB,.4
03FE   1286           01102                         BCF             PORTB,.5
03FF   3005           01103                         MOVLW   .5
0400   00E4           01104                         MOVWF   0X64
0401   303D           01105                         MOVLW   .61
0402   00E5           01106                         MOVWF   0X65
0403   307D           01107                         MOVLW   .125
0404   00E6           01108                         MOVWF   0X66
0405   2???           01109                         CALL    ST3V
0406   0000           01110                         NOP
0407   1706           01111                         BSF             PORTB,.6
0408   1786           01112                         BSF             PORTB,.7
0409   2???           01113                         CALL    _10MS
040A   1306           01114                         BCF             PORTB,.6
040B   1386           01115                         BCF             PORTB,.7
040C   3005           01116                         MOVLW   .5
040D   00E4           01117                         MOVWF   0X64
040E   303D           01118                         MOVLW   .61
040F   00E5           01119                         MOVWF   0X65
0410   307D           01120                         MOVLW   .125
0411   00E6           01121                         MOVWF   0X66
0412   2???           01122                         CALL    ST3V
0413   0000           01123                         NOP
0414   2???           01124                         CALL    _10MS                           
0415   2???           01125                         GOTO    ALLEGRO_2
                      01126 
0416   1606           01127 ALLEGRO_3       BSF             PORTB,.4        
0417   1686           01128                         BSF             PORTB,.5
0418   2???           01129                         CALL    _20MS
0419   1206           01130                         BCF             PORTB,.4
041A   1286           01131                         BCF             PORTB,.5
041B   2???           01132                         CALL    AL_3
041C   3002           01133                         MOVLW   .2
041D   00A0           01134                         MOVWF   0X20
041E   1706           01135                         BSF             PORTB,.6
041F   1786           01136                         BSF             PORTB,.7
0420   2???           01137                         CALL    _10MS
0421   1306           01138                         BCF             PORTB,.6
0422   1386           01139                         BCF             PORTB,.7
0423   2???           01140                         CALL    AL_3
0424   2???           01141                         CALL    _10MS
0425   0BA0           01142                         DECFSZ  0X20,F
0426   2???           01143                         GOTO    $-8                     
0427   2???           01144                         GOTO    ALLEGRO_3
                      01145 
0428   1606           01146 ALLEGRO_4       BSF             PORTB,.4        
0429   1686           01147                         BSF             PORTB,.5
MPASM  5.49                     METRONOMO.ASM   5-6-2018  16:23:18         PAGE 23


LOC  OBJECT CODE     LINE SOURCE TEXT
  VALUE

042A   2???           01148                         CALL    _20MS
042B   1206           01149                         BCF             PORTB,.4
042C   1286           01150                         BCF             PORTB,.5
042D   2???           01151                         CALL    AL_4
042E   3003           01152                         MOVLW   .3
042F   00A0           01153                         MOVWF   0X20
0430   1706           01154                         BSF             PORTB,.6
0431   1786           01155                         BSF             PORTB,.7
0432   2???           01156                         CALL    _10MS
0433   1306           01157                         BCF             PORTB,.6
0434   1386           01158                         BCF             PORTB,.7
0435   2???           01159                         CALL    AL_4
0436   2???           01160                         CALL    _10MS
0437   0BA0           01161                         DECFSZ  0X20,F
0438   2???           01162                         GOTO    $-8                     
0439   2???           01163                         GOTO    ALLEGRO_4
                      01164 
043A   1606           01165 ALLEGRO_5       BSF             PORTB,.4        
043B   1686           01166                         BSF             PORTB,.5
043C   2???           01167                         CALL    _20MS
043D   1206           01168                         BCF             PORTB,.4
043E   1286           01169                         BCF             PORTB,.5
043F   2???           01170                         CALL    AL_5
0440   3004           01171                         MOVLW   .4
0441   00A0           01172                         MOVWF   0X20
0442   1706           01173                         BSF             PORTB,.6
0443   1786           01174                         BSF             PORTB,.7
0444   2???           01175                         CALL    _10MS
0445   1306           01176                         BCF             PORTB,.6
0446   1386           01177                         BCF             PORTB,.7
0447   2???           01178                         CALL    AL_5
0448   2???           01179                         CALL    _10MS
0449   0BA0           01180                         DECFSZ  0X20,F
044A   2???           01181                         GOTO    $-8                             
044B   2???           01182                         GOTO    ALLEGRO_5
                      01183 
044C   1606           01184 ALLEGRO_6       BSF             PORTB,.4        
044D   1686           01185                         BSF             PORTB,.5
044E   2???           01186                         CALL    _20MS
044F   1206           01187                         BCF             PORTB,.4
0450   1286           01188                         BCF             PORTB,.5
0451   2???           01189                         CALL    AL_6
0452   3005           01190                         MOVLW   .5
0453   00A0           01191                         MOVWF   0X20
0454   1706           01192                         BSF             PORTB,.6
0455   1786           01193                         BSF             PORTB,.7
0456   2???           01194                         CALL    _10MS
0457   1306           01195                         BCF             PORTB,.6
0458   1386           01196                         BCF             PORTB,.7
0459   2???           01197                         CALL    AL_6
045A   2???           01198                         CALL    _10MS
045B   0BA0           01199                         DECFSZ  0X20,F
045C   2???           01200                         GOTO    $-8                     
MPASM  5.49                     METRONOMO.ASM   5-6-2018  16:23:18         PAGE 24


LOC  OBJECT CODE     LINE SOURCE TEXT
  VALUE

045D   2???           01201                         GOTO    ALLEGRO_6
                      01202 
045E   1606           01203 ALLEGRO_7       BSF             PORTB,.4        
045F   1686           01204                         BSF             PORTB,.5
0460   2???           01205                         CALL    _20MS
0461   1206           01206                         BCF             PORTB,.4
0462   1286           01207                         BCF             PORTB,.5
0463   2???           01208                         CALL    AL_7
0464   3006           01209                         MOVLW   .6
0465   00A0           01210                         MOVWF   0X20
0466   1706           01211                         BSF             PORTB,.6
0467   1786           01212                         BSF             PORTB,.7
0468   2???           01213                         CALL    _10MS
0469   1306           01214                         BCF             PORTB,.6
046A   1386           01215                         BCF             PORTB,.7
046B   2???           01216                         CALL    AL_7
046C   2???           01217                         CALL    _10MS
046D   0BA0           01218                         DECFSZ  0X20,F
046E   2???           01219                         GOTO    $-8             
046F   2???           01220                         GOTO    ALLEGRO_7
                      01221 
0470   1606           01222 ALLEGRO_8       BSF             PORTB,.4        
0471   1686           01223                         BSF             PORTB,.5
0472   2???           01224                         CALL    _20MS
0473   1206           01225                         BCF             PORTB,.4
0474   1286           01226                         BCF             PORTB,.5
0475   2???           01227                         CALL    AL_8
0476   3007           01228                         MOVLW   .7
0477   00A0           01229                         MOVWF   0X20
0478   1706           01230                         BSF             PORTB,.6
0479   1786           01231                         BSF             PORTB,.7
047A   2???           01232                         CALL    _10MS
047B   1306           01233                         BCF             PORTB,.6
047C   1386           01234                         BCF             PORTB,.7
047D   2???           01235                         CALL    AL_8
047E   2???           01236                         CALL    _10MS
047F   0BA0           01237                         DECFSZ  0X20,F
0480   2???           01238                         GOTO    $-8                     
0481   2???           01239                         GOTO    ALLEGRO_8
                      01240 
                      01241 
                      01242 ;PRESTO
0482   1606           01243 PRESTO          BSF             PORTB,.4        
0483   1686           01244                         BSF             PORTB,.5
0484   2???           01245                         CALL    _20MS
0485   1206           01246                         BCF             PORTB,.4
0486   1286           01247                         BCF             PORTB,.5
0487   30B2           01248                         MOVLW   .178
0488   00E4           01249                         MOVWF   0X64
0489   30BD           01250                         MOVLW   .189
048A   00E5           01251                         MOVWF   0X65
048B   3001           01252                         MOVLW   .1
048C   00E6           01253                         MOVWF   0X66
MPASM  5.49                     METRONOMO.ASM   5-6-2018  16:23:18         PAGE 25


LOC  OBJECT CODE     LINE SOURCE TEXT
  VALUE

048D   2???           01254                         CALL    ST3V
048E   0000           01255                         NOP
048F   2???           01256                         GOTO    PRESTO
                      01257 
                      01258 ;PRESTISSIMO
0490   1606           01259 PRESTISSIMO     BSF             PORTB,.4        
0491   1686           01260                         BSF             PORTB,.5
0492   2???           01261                         CALL    _20MS
0493   1206           01262                         BCF             PORTB,.4
0494   1286           01263                         BCF             PORTB,.5
0495   3099           01264                         MOVLW   .153
0496   00E4           01265                         MOVWF   0X64
0497   3053           01266                         MOVLW   .83
0498   00E5           01267                         MOVWF   0X65
0499   3003           01268                         MOVLW   .3
049A   00E6           01269                         MOVWF   0X66
049B   2???           01270                         CALL    ST3V
049C   0000           01271                         NOP
049D   2???           01272                         GOTO    PRESTISSIMO
                      01273 
                      01274 
                      01275 ;****************************************************************
049E   30F3           01276 TLO_3           MOVLW   .243
049F   00E1           01277                         MOVWF   0X61
04A0   30D6           01278                         MOVLW   .214
04A1   00E2           01279                         MOVWF   0X62
04A2   2???           01280                         CALL    ST2V
04A3   0000           01281                         NOP
04A4   0000           01282                         NOP
04A5   0000           01283                         NOP
04A6   0000           01284                         NOP
04A7   0008           01285                         RETURN
                      01286 
04A8   30DE           01287 TLO_4           MOVLW   .222
04A9   00E1           01288                         MOVWF   0X61
04AA   30AC           01289                         MOVLW   .172
04AB   00E2           01290                         MOVWF   0X62
04AC   2???           01291                         CALL    ST2V
04AD   0008           01292                         RETURN
04AE   3097           01293 TLO_5           MOVLW   .151
04AF   00E1           01294                         MOVWF   0X61
04B0   30C6           01295                         MOVLW   .198
04B1   00E2           01296                         MOVWF   0X62
04B2   2???           01297                         CALL    ST2V
04B3   0008           01298                         RETURN
04B4   3087           01299 TLO_6           MOVLW   .135
04B5   00E1           01300                         MOVWF   0X61
04B6   308B           01301                         MOVLW   .139
04B7   00E2           01302                         MOVWF   0X62
04B8   2???           01303                         CALL    ST2V
04B9   0000           01304                         NOP
04BA   0000           01305                         NOP
04BB   0000           01306                         NOP
MPASM  5.49                     METRONOMO.ASM   5-6-2018  16:23:18         PAGE 26


LOC  OBJECT CODE     LINE SOURCE TEXT
  VALUE

04BC   0000           01307                         NOP
04BD   0000           01308                         NOP
04BE   0000           01309                         NOP
04BF   0008           01310                         RETURN
04C0   3087           01311 TLO_7           MOVLW   .135
04C1   00E1           01312                         MOVWF   0X61
04C2   3097           01313                         MOVLW   .151
04C3   00E2           01314                         MOVWF   0X62
04C4   2???           01315                         CALL    ST2V
04C5   0008           01316                         RETURN
04C6   30C1           01317 TLO_8           MOVLW   .193
04C7   00E1           01318                         MOVWF   0X61
04C8   305A           01319                         MOVLW   .90
04C9   00E2           01320                         MOVWF   0X62
04CA   2???           01321                         CALL    ST2V
04CB   0008           01322                         RETURN
                      01323 ;LARGO
04CC   300D           01324 TLA_3           MOVLW   .13
04CD   00E4           01325                         MOVWF   0X64
04CE   3061           01326                         MOVLW   .97
04CF   00E5           01327                         MOVWF   0X65
04D0   303F           01328                         MOVLW   .63
04D1   00E6           01329                         MOVWF   0X66
04D2   2???           01330                         CALL    ST3V
04D3   0000           01331                         NOP
04D4   0008           01332                         RETURN
                      01333 
04D5   302A           01334 TLA_4           MOVLW   .42
04D6   00E4           01335                         MOVWF   0X64
04D7   300A           01336                         MOVLW   .10
04D8   00E5           01337                         MOVWF   0X65
04D9   3084           01338                         MOVLW   .132
04DA   00E6           01339                         MOVWF   0X66
04DB   2???           01340                         CALL    ST3V
04DC   0008           01341                         RETURN
                      01342 
04DD   30E4           01343 TLA_5           MOVLW   .228
04DE   00E1           01344                         MOVWF   0X61
04DF   30CC           01345                         MOVLW   .204
04E0   00E2           01346                         MOVWF   0X62
04E1   2???           01347                         CALL    ST2V
04E2   0000           01348                         NOP
04E3   0000           01349                         NOP
04E4   0000           01350                         NOP
04E5   0000           01351                         NOP     
04E6   0000           01352                         NOP
04E7   0008           01353                         RETURN
                      01354 
04E8   30DE           01355 TLA_6           MOVLW   .222
04E9   00E1           01356                         MOVWF   0X61
04EA   30AC           01357                         MOVLW   .172
04EB   00E2           01358                         MOVWF   0X62
04EC   2???           01359                         CALL    ST2V
MPASM  5.49                     METRONOMO.ASM   5-6-2018  16:23:18         PAGE 27


LOC  OBJECT CODE     LINE SOURCE TEXT
  VALUE

04ED   0008           01360                         RETURN
04EE   30D0           01361 TLA_7           MOVLW   .208
04EF   00E1           01362                         MOVWF   0X61
04F0   309B           01363                         MOVLW   .155
04F1   00E2           01364                         MOVWF   0X62
04F2   2???           01365                         CALL    ST2V
04F3   0000           01366                         NOP
04F4   0000           01367                         NOP
04F5   0008           01368                         RETURN
04F6   30D4           01369 TLA_8           MOVLW   .212
04F7   00E1           01370                         MOVWF   0X61
04F8   3083           01371                         MOVLW   .131
04F9   00E2           01372                         MOVWF   0X62
04FA   2???           01373                         CALL    ST2V
04FB   0000           01374                         NOP
04FC   0000           01375                         NOP
04FD   0000           01376                         NOP
04FE   0000           01377                         NOP
04FF   0000           01378                         NOP
0500   0000           01379                         NOP
0501   0008           01380                         RETURN
                      01381 
                      01382 ;ADAGIO
0502   309F           01383 AN_3            MOVLW   .159
0503   00E4           01384                         MOVWF   0X64
0504   306F           01385                         MOVLW   .111
0505   00E5           01386                         MOVWF   0X65
0506   3002           01387                         MOVLW   .2
0507   00E6           01388                         MOVWF   0X66
0508   2???           01389                         CALL    ST3V
0509   0000           01390                         NOP
050A   0008           01391                         RETURN
                      01392 
050B   30F1           01393 AN_4            MOVLW   .241
050C   00E4           01394                         MOVWF   0X64
050D   3004           01395                         MOVLW   .4
050E   00E5           01396                         MOVWF   0X65
050F   3023           01397                         MOVLW   .35
0510   00E6           01398                         MOVWF   0X66
0511   2???           01399                         CALL    ST3V
0512   0008           01400                         RETURN
                      01401 
0513   300C           01402 AN_5            MOVLW   .12
0514   00E4           01403                         MOVWF   0X64
0515   300A           01404                         MOVLW   .10
0516   00E5           01405                         MOVWF   0X65
0517   30E0           01406                         MOVLW   .224
0518   00E6           01407                         MOVWF   0X66
0519   2???           01408                         CALL    ST3V
051A   0008           01409                         RETURN
                      01410 
051B   30EA           01411 AN_6            MOVLW   .234
051C   00E1           01412                         MOVWF   0X61
MPASM  5.49                     METRONOMO.ASM   5-6-2018  16:23:18         PAGE 28


LOC  OBJECT CODE     LINE SOURCE TEXT
  VALUE

051D   305D           01413                         MOVLW   .93
051E   00E2           01414                         MOVWF   0X62
051F   2???           01415                         CALL    ST2V
0520   0008           01416                         RETURN
0521   3085           01417 AN_7            MOVLW   .133
0522   00E1           01418                         MOVWF   0X61
0523   3089           01419                         MOVLW   .137
0524   00E2           01420                         MOVWF   0X62
0525   2???           01421                         CALL    ST2V
0526   0000           01422                         NOP
0527   0008           01423                         RETURN
0528   30B2           01424 AN_8            MOVLW   .178
0529   00E1           01425                         MOVWF   0X61
052A   3057           01426                         MOVLW   .87
052B   00E2           01427                         MOVWF   0X62
052C   2???           01428                         CALL    ST2V
052D   0008           01429                         RETURN
                      01430 ;ANDANTE
052E   30C6           01431 ANT_3           MOVLW   .198
052F   00E4           01432                         MOVWF   0X64
0530   306F           01433                         MOVLW   .111
0531   00E5           01434                         MOVWF   0X65
0532   3002           01435                         MOVLW   .2
0533   00E6           01436                         MOVWF   0X66
0534   2???           01437                         CALL    ST3V
0535   0000           01438                         NOP
0536   0000           01439                         NOP
0537   0008           01440                         RETURN
                      01441 
0538   30F5           01442 ANT_4           MOVLW   .245
0539   00E1           01443                         MOVWF   0X61
053A   3077           01444                         MOVLW   .119
053B   00E2           01445                         MOVWF   0X62
053C   2???           01446                         CALL    ST2V
053D   0000           01447                         NOP
053E   0000           01448                         NOP
053F   0000           01449                         NOP
0540   0000           01450                         NOP
0541   0000           01451                         NOP
0542   0000           01452                         NOP
0543   0000           01453                         NOP
0544   0000           01454                         NOP
0545   0008           01455                         RETURN
                      01456 
0546   30B4           01457 ANT_5           MOVLW   .180
0547   00E1           01458                         MOVWF   0X61
0548   307F           01459                         MOVLW   .127
0549   00E2           01460                         MOVWF   0X62
054A   2???           01461                         CALL    ST2V
054B   0000           01462                         NOP
054C   0000           01463                         NOP
054D   0000           01464                         NOP
054E   0008           01465                         RETURN
MPASM  5.49                     METRONOMO.ASM   5-6-2018  16:23:18         PAGE 29


LOC  OBJECT CODE     LINE SOURCE TEXT
  VALUE

                      01466 
054F   304C           01467 ANT_6           MOVLW   .76
0550   00E1           01468                         MOVWF   0X61
0551   30F4           01469                         MOVLW   .244
0552   00E2           01470                         MOVWF   0X62
0553   2???           01471                         CALL    ST2V
0554   0008           01472                         RETURN
0555   3068           01473 ANT_7           MOVLW   .104
0556   00E1           01474                         MOVWF   0X61
0557   3094           01475                         MOVLW   .148
0558   00E2           01476                         MOVWF   0X62
0559   2???           01477                         CALL    ST2V
055A   0000           01478                         NOP
055B   0000           01479                         NOP
055C   0008           01480                         RETURN
055D   30B2           01481 ANT_8           MOVLW   .178
055E   00E1           01482                         MOVWF   0X61
055F   3049           01483                         MOVLW   .73
0560   00E2           01484                         MOVWF   0X62
0561   2???           01485                         CALL    ST2V
0562   0008           01486                         RETURN
                      01487 ;MODERATO
0563   302C           01488 MOD_3           MOVLW   .44
0564   00E4           01489                         MOVWF   0X64
0565   300F           01490                         MOVLW   .15
0566   00E5           01491                         MOVWF   0X65
0567   3029           01492                         MOVLW   .41
0568   00E6           01493                         MOVWF   0X66
0569   2???           01494                         CALL    ST3V
056A   0008           01495                         RETURN
                      01496 
056B   3050           01497 MOD_4           MOVLW   .80
056C   00E1           01498                         MOVWF   0X61
056D   30F7           01499                         MOVLW   .247
056E   00E2           01500                         MOVWF   0X62
056F   2???           01501                         CALL    ST2V
0570   0008           01502                         RETURN
                      01503 
0571   304E           01504 MOD_5           MOVLW   .78
0572   00E1           01505                         MOVWF   0X61
0573   30C2           01506                         MOVLW   .194
0574   00E2           01507                         MOVWF   0X62
0575   2???           01508                         CALL    ST2V
0576   0008           01509                         RETURN
                      01510 
0577   3056           01511 MOD_6           MOVLW   .86
0578   00E1           01512                         MOVWF   0X61
0579   308C           01513                         MOVLW   .140
057A   00E2           01514                         MOVWF   0X62
057B   2???           01515                         CALL    ST2V
057C   0008           01516                         RETURN
057D   3027           01517 MOD_7           MOVLW   .39
057E   00E1           01518                         MOVWF   0X61
MPASM  5.49                     METRONOMO.ASM   5-6-2018  16:23:18         PAGE 30


LOC  OBJECT CODE     LINE SOURCE TEXT
  VALUE

057F   30FD           01519                         MOVLW   .253
0580   00E2           01520                         MOVWF   0X62
0581   2???           01521                         CALL    ST2V
0582   0000           01522                         NOP
0583   0000           01523                         NOP
0584   0008           01524                         RETURN
0585   30E7           01525 MOD_8           MOVLW   .231
0586   00E1           01526                         MOVWF   0X61
0587   3023           01527                         MOVLW   .35
0588   00E2           01528                         MOVWF   0X62
0589   2???           01529                         CALL    ST2V
058A   0008           01530                         RETURN
                      01531 
                      01532 ;ALLEGRO
058B   30AF           01533 AL_3            MOVLW   .175
058C   00E1           01534                         MOVWF   0X61
058D   308B           01535                         MOVLW   .139
058E   00E2           01536                         MOVWF   0X62
058F   2???           01537                         CALL    ST2V
0590   0000           01538                         NOP
0591   0000           01539                         NOP
0592   0000           01540                         NOP
0593   0000           01541                         NOP
0594   0008           01542                         RETURN
                      01543 
0595   30C1           01544 AL_4            MOVLW   .193
0596   00E1           01545                         MOVWF   0X61
0597   305A           01546                         MOVLW   .90
0598   00E2           01547                         MOVWF   0X62
0599   2???           01548                         CALL    ST2V
059A   0008           01549                         RETURN
                      01550 
059B   3063           01551 AL_5            MOVLW   .99
059C   00E1           01552                         MOVWF   0X61
059D   3086           01553                         MOVLW   .134
059E   00E2           01554                         MOVWF   0X62
059F   2???           01555                         CALL    ST2V
05A0   0008           01556                         RETURN
                      01557 
05A1   30B7           01558 AL_6            MOVLW   .183
05A2   00E1           01559                         MOVWF   0X61
05A3   3039           01560                         MOVLW   .57
05A4   00E2           01561                         MOVWF   0X62
05A5   2???           01562                         CALL    ST2V
05A6   0000           01563                         NOP
05A7   0000           01564                         NOP
05A8   0000           01565                         NOP
05A9   0008           01566                         RETURN
05AA   307B           01567 AL_7            MOVLW   .123
05AB   00E1           01568                         MOVWF   0X61
05AC   3045           01569                         MOVLW   .69
05AD   00E2           01570                         MOVWF   0X62
05AE   2???           01571                         CALL    ST2V
MPASM  5.49                     METRONOMO.ASM   5-6-2018  16:23:18         PAGE 31


LOC  OBJECT CODE     LINE SOURCE TEXT
  VALUE

05AF   0000           01572                         NOP
05B0   0000           01573                         NOP
05B1   0008           01574                         RETURN
05B2   30BC           01575 AL_8            MOVLW   .188
05B3   00E1           01576                         MOVWF   0X61
05B4   3025           01577                         MOVLW   .37
05B5   00E2           01578                         MOVWF   0X62
05B6   2???           01579                         CALL    ST2V
05B7   0008           01580                         RETURN
                      01581 ;++++++++++++++++++++++++++++++++++++++++++++++++++++++++++++++++++
05B8   3016           01582 _10MS           MOVLW   .22
05B9   00E1           01583                         MOVWF   0X61
05BA   304B           01584                         MOVLW   .75
05BB   00E2           01585                         MOVWF   0X62
05BC   2???           01586                         CALL    ST2V
05BD   0000           01587                         NOP
05BE   0008           01588                         RETURN
05BF   3026           01589 _20MS           MOVLW   .38
05C0   00E1           01590                         MOVWF   0X61
05C1   3057           01591                         MOVLW   .87
05C2   00E2           01592                         MOVWF   0X62
05C3   2???           01593                         CALL    ST2V
05C4   0000           01594                         NOP
05C5   0008           01595                         RETURN
                      01596 ;-------------------------------------------------------------
                      01597 
05C6   30B0           01598 REBOTE          MOVLW           .176
05C7   00E1           01599                         MOVWF           0X61
05C8   3017           01600                         MOVLW           .23
05C9   00E2           01601                         MOVWF           0X62
05CA   2???           01602                         CALL            ST2V
05CB   0008           01603                         RETURN
                      01604 
                      01605                         INCLUDE     <SUBS_TIEMPO.ASM>
05CC   0000           00001 ST1V:                   NOP
05CD   0000           00002                 NOP
05CE   0000           00003                 NOP
05CF   0BE0           00004                 DECFSZ      0X60,F
05D0   2???           00005                 GOTO        ST1V
05D1   0008           00006                 RETURN
                      00007 ;+++++++++++++++++++++++++++++++++++++++
05D2   0862           00008 ST2V:                   MOVF            0X62,W
05D3   00E3           00009                                 MOVWF           0X63
05D4   0000           00010 DECRE2V                 NOP
05D5   0000           00011                 NOP
05D6   0000           00012                 NOP
05D7   0BE3           00013                 DECFSZ      0X63,F
05D8   2???           00014                 GOTO        DECRE2V
05D9   0BE1           00015                                 DECFSZ          0X61,F
05DA   2???           00016                                 GOTO            ST2V
05DB   0008           00017                 RETURN
                      00018 ;++++++++++++++++++++++++++++++++++++++++
05DC   0865           00019 ST3V:                   MOVF            0X65,W
MPASM  5.49                     METRONOMO.ASM   5-6-2018  16:23:18         PAGE 32


LOC  OBJECT CODE     LINE SOURCE TEXT
  VALUE

05DD   00E7           00020                                 MOVWF           0X67
05DE   0866           00021 RECARGA3V:              MOVF            0X66,W
05DF   00E8           00022                                 MOVWF           0X68
05E0   0000           00023 DECRE3V:                NOP
05E1   0000           00024                 NOP
05E2   0000           00025                 NOP
05E3   0BE8           00026                 DECFSZ      0X68,F
05E4   2???           00027                 GOTO        DECRE3V
05E5   0BE7           00028                                 DECFSZ          0X67,F
05E6   2???           00029                                 GOTO            RECARGA3V
05E7   0BE4           00030                                 DECFSZ          0X64,F
05E8   2???           00031                                 GOTO            ST3V
05E9   0008           00032                 RETURN
                      00033 ;++++++++++++++++++++++++++++++++++++++++++++                
                      00034             
2BE2 3FFF             01606                         END
MPASM  5.49                     METRONOMO.ASM   5-6-2018  16:23:18         PAGE 33


SYMBOL TABLE
  LABEL                             VALUE 

ABDEN                             00000000
ABDOVF                            00000007
ACKDT                             00000005
ACKEN                             00000004
ACKSTAT                           00000006
ADAGIO_0                          0000022F
ADAGIO_2                          0000023D
ADAGIO_3                          00000257
ADAGIO_4                          00000269
ADAGIO_5                          0000027B
ADAGIO_6                          0000028D
ADAGIO_7                          0000029F
ADAGIO_8                          000002B1
ADCON0                            0000001F
ADCON1                            0000009F
ADCS0                             00000006
ADCS1                             00000007
ADDEN                             00000003
ADFM                              00000007
ADIE                              00000006
ADIF                              00000006
ADON                              00000000
ADRESH                            0000001E
ADRESL                            0000009E
ALLEGRO_0                         000003ED
ALLEGRO_2                         000003FA
ALLEGRO_3                         00000416
ALLEGRO_4                         00000428
ALLEGRO_5                         0000043A
ALLEGRO_6                         0000044C
ALLEGRO_7                         0000045E
ALLEGRO_8                         00000470
AL_3                              0000058B
AL_4                              00000595
AL_5                              0000059B
AL_6                              000005A1
AL_7                              000005AA
AL_8                              000005B2
ANDANTE_0                         000002C3
ANDANTE_2                         000002D0
ANDANTE_3                         000002EE
ANDANTE_4                         00000300
ANDANTE_5                         00000312
ANDANTE_6                         00000324
ANDANTE_7                         00000336
ANDANTE_8                         00000348
ANS0                              00000000
ANS1                              00000001
ANS10                             00000002
ANS11                             00000003
ANS12                             00000004
ANS13                             00000005
ANS2                              00000002
MPASM  5.49                     METRONOMO.ASM   5-6-2018  16:23:18         PAGE 34


SYMBOL TABLE
  LABEL                             VALUE 

ANS3                              00000003
ANS4                              00000004
ANS5                              00000005
ANS6                              00000006
ANS7                              00000007
ANS8                              00000000
ANS9                              00000001
ANSEL                             00000188
ANSELH                            00000189
ANT_3                             0000052E
ANT_4                             00000538
ANT_5                             00000546
ANT_6                             0000054F
ANT_7                             00000555
ANT_8                             0000055D
AN_3                              00000502
AN_4                              0000050B
AN_5                              00000513
AN_6                              0000051B
AN_7                              00000521
AN_8                              00000528
BAUDCTL                           00000187
BCLIE                             00000003
BCLIF                             00000003
BF                                00000000
BRG0                              00000000
BRG1                              00000001
BRG10                             00000002
BRG11                             00000003
BRG12                             00000004
BRG13                             00000005
BRG14                             00000006
BRG15                             00000007
BRG16                             00000003
BRG2                              00000002
BRG3                              00000003
BRG4                              00000004
BRG5                              00000005
BRG6                              00000006
BRG7                              00000007
BRG8                              00000000
BRG9                              00000001
BRGH                              00000002
C                                 00000000
C1CH0                             00000000
C1CH1                             00000001
C1IE                              00000005
C1IF                              00000005
C1OE                              00000005
C1ON                              00000007
C1OUT                             00000006
C1POL                             00000004
C1R                               00000002
MPASM  5.49                     METRONOMO.ASM   5-6-2018  16:23:18         PAGE 35


SYMBOL TABLE
  LABEL                             VALUE 

C1RSEL                            00000005
C1SEN                             00000005
C2CH0                             00000000
C2CH1                             00000001
C2IE                              00000006
C2IF                              00000006
C2OE                              00000005
C2ON                              00000007
C2OUT                             00000006
C2POL                             00000004
C2R                               00000002
C2REN                             00000004
C2RSEL                            00000004
C2SYNC                            00000000
CCP1CON                           00000017
CCP1IE                            00000002
CCP1IF                            00000002
CCP1M0                            00000000
CCP1M1                            00000001
CCP1M2                            00000002
CCP1M3                            00000003
CCP1X                             00000005
CCP1Y                             00000004
CCP2CON                           0000001D
CCP2IE                            00000000
CCP2IF                            00000000
CCP2M0                            00000000
CCP2M1                            00000001
CCP2M2                            00000002
CCP2M3                            00000003
CCP2X                             00000005
CCP2Y                             00000004
CCPR1                             00000015
CCPR1H                            00000016
CCPR1L                            00000015
CCPR2                             0000001B
CCPR2H                            0000001C
CCPR2L                            0000001B
CHS0                              00000002
CHS1                              00000003
CHS2                              00000004
CHS3                              00000005
CKE                               00000006
CKP                               00000004
CM1CON0                           00000107
CM2CON0                           00000108
CM2CON1                           00000109
CREN                              00000004
CSRC                              00000007
D                                 00000005
DATA_ADDRESS                      00000005
DC                                00000001
DC1B0                             00000004
MPASM  5.49                     METRONOMO.ASM   5-6-2018  16:23:18         PAGE 36


SYMBOL TABLE
  LABEL                             VALUE 

DC1B1                             00000005
DC2B0                             00000004
DC2B1                             00000005
DECRE2V                           000005D4
DECRE3V                           000005E0
D_A                               00000005
D_NOT_A                           00000005
ECCPAS                            0000009C
ECCPAS0                           00000004
ECCPAS1                           00000005
ECCPAS2                           00000006
ECCPASE                           00000007
EEADR                             0000010D
EEADRH                            0000010F
EECON1                            0000018C
EECON2                            0000018D
EEDAT                             0000010C
EEDATA                            0000010C
EEDATH                            0000010E
EEIE                              00000004
EEIF                              00000004
EEPGD                             00000007
F                                 00000001
FERR                              00000002
FSR                               00000004
FVREN                             00000000
GCEN                              00000007
GIE                               00000007
GO                                00000001
GO_DONE                           00000001
GO_NOT_DONE                       00000001
HTS                               00000002
I2C_DATA                          00000005
I2C_READ                          00000002
I2C_START                         00000003
I2C_STOP                          00000004
INDF                              00000000
INICIO                            0000000C
INTCON                            0000000B
INTE                              00000004
INTEDG                            00000006
INTF                              00000001
IOCB                              00000096
IOCB0                             00000000
IOCB1                             00000001
IOCB2                             00000002
IOCB3                             00000003
IOCB4                             00000004
IOCB5                             00000005
IOCB6                             00000006
IOCB7                             00000007
IRCF0                             00000004
IRCF1                             00000005
MPASM  5.49                     METRONOMO.ASM   5-6-2018  16:23:18         PAGE 37


SYMBOL TABLE
  LABEL                             VALUE 

IRCF2                             00000006
IRP                               00000007
LARGHETTO_0                       00000107
LARGHETTO_2                       00000114
LARGHETTO_3                       0000012E
LARGHETTO_4                       00000140
LARGHETTO_5                       00000152
LARGHETTO_6                       00000164
LARGHETTO_7                       00000176
LARGHETTO_8                       00000188
LARGO_0                           0000019A
LARGO_2                           000001A7
LARGO_3                           000001C3
LARGO_4                           000001D5
LARGO_5                           000001E7
LARGO_6                           000001F9
LARGO_7                           0000020B
LARGO_8                           0000021D
LTS                               00000001
MC1OUT                            00000007
MC2OUT                            00000006
MODERATO_0                        0000035A
MODERATO_2                        00000367
MODERATO_3                        00000381
MODERATO_4                        00000393
MODERATO_5                        000003A5
MODERATO_6                        000003B7
MODERATO_7                        000003C9
MODERATO_8                        000003DB
MOD_3                             00000563
MOD_4                             0000056B
MOD_5                             00000571
MOD_6                             00000577
MOD_7                             0000057D
MOD_8                             00000585
MSK                               00000093
MSK0                              00000000
MSK1                              00000001
MSK2                              00000002
MSK3                              00000003
MSK4                              00000004
MSK5                              00000005
MSK6                              00000006
MSK7                              00000007
NOT_A                             00000005
NOT_ADDRESS                       00000005
NOT_BO                            00000000
NOT_BOR                           00000000
NOT_DONE                          00000001
NOT_PD                            00000003
NOT_POR                           00000001
NOT_RBPU                          00000007
NOT_RC8                           00000006
MPASM  5.49                     METRONOMO.ASM   5-6-2018  16:23:18         PAGE 38


SYMBOL TABLE
  LABEL                             VALUE 

NOT_T1SYNC                        00000002
NOT_TO                            00000004
NOT_TX8                           00000006
NOT_W                             00000002
NOT_WRITE                         00000002
OERR                              00000001
OPTION_REG                        00000081
OSCCON                            0000008F
OSCTUNE                           00000090
OSFIE                             00000007
OSFIF                             00000007
OSTS                              00000003
P                                 00000004
P1M0                              00000006
P1M1                              00000007
PCL                               00000002
PCLATH                            0000000A
PCON                              0000008E
PDC0                              00000000
PDC1                              00000001
PDC2                              00000002
PDC3                              00000003
PDC4                              00000004
PDC5                              00000005
PDC6                              00000006
PEIE                              00000006
PEN                               00000002
PIE1                              0000008C
PIE2                              0000008D
PIR1                              0000000C
PIR2                              0000000D
PORTA                             00000005
PORTB                             00000006
PORTC                             00000007
PORTD                             00000008
PORTE                             00000009
PR2                               00000092
PRESTISSIMO                       00000490
PRESTO                            00000482
PRSEN                             00000007
PS0                               00000000
PS1                               00000001
PS2                               00000002
PSA                               00000003
PSSAC0                            00000002
PSSAC1                            00000003
PSSBD0                            00000000
PSSBD1                            00000001
PSTRCON                           0000009D
PULSR                             00000002
PULSS                             00000003
PWM1CON                           0000009B
R                                 00000002
MPASM  5.49                     METRONOMO.ASM   5-6-2018  16:23:18         PAGE 39


SYMBOL TABLE
  LABEL                             VALUE 

RA0                               00000000
RA1                               00000001
RA2                               00000002
RA3                               00000003
RA4                               00000004
RA5                               00000005
RA6                               00000006
RA7                               00000007
RB0                               00000000
RB1                               00000001
RB2                               00000002
RB3                               00000003
RB4                               00000004
RB5                               00000005
RB6                               00000006
RB7                               00000007
RBIE                              00000003
RBIF                              00000000
RC0                               00000000
RC1                               00000001
RC2                               00000002
RC3                               00000003
RC4                               00000004
RC5                               00000005
RC6                               00000006
RC7                               00000007
RC8_9                             00000006
RC9                               00000006
RCD8                              00000000
RCEN                              00000003
RCIDL                             00000006
RCIE                              00000005
RCIF                              00000005
RCREG                             0000001A
RCSTA                             00000018
RD                                00000000
RD0                               00000000
RD1                               00000001
RD2                               00000002
RD3                               00000003
RD4                               00000004
RD5                               00000005
RD6                               00000006
RD7                               00000007
RE0                               00000000
RE1                               00000001
RE2                               00000002
RE3                               00000003
READ_WRITE                        00000002
REBOTE                            000005C6
RECARGA3V                         000005DE
RP0                               00000005
RP1                               00000006
MPASM  5.49                     METRONOMO.ASM   5-6-2018  16:23:18         PAGE 40


SYMBOL TABLE
  LABEL                             VALUE 

RSEN                              00000001
RX9                               00000006
RX9D                              00000000
R_NOT_W                           00000002
R_W                               00000002
S                                 00000003
SBOREN                            00000004
SCKP                              00000004
SCS                               00000000
SEN                               00000000
SENDB                             00000003
SMP                               00000007
SPBRG                             00000099
SPBRGH                            0000009A
SPEN                              00000007
SR0                               00000006
SR1                               00000007
SRCON                             00000185
SREN                              00000005
SSPADD                            00000093
SSPBUF                            00000013
SSPCON                            00000014
SSPCON2                           00000091
SSPEN                             00000005
SSPIE                             00000003
SSPIF                             00000003
SSPM0                             00000000
SSPM1                             00000001
SSPM2                             00000002
SSPM3                             00000003
SSPMSK                            00000093
SSPOV                             00000006
SSPSTAT                           00000094
ST1V                              000005CC
ST2V                              000005D2
ST3V                              000005DC
STATUS                            00000003
STRA                              00000000
STRB                              00000001
STRC                              00000002
STRD                              00000003
STRSYNC                           00000004
SWDTEN                            00000000
SYNC                              00000004
T0CS                              00000005
T0IE                              00000005
T0IF                              00000002
T0SE                              00000004
T1CKPS0                           00000004
T1CKPS1                           00000005
T1CON                             00000010
T1GINV                            00000007
T1GIV                             00000007
MPASM  5.49                     METRONOMO.ASM   5-6-2018  16:23:18         PAGE 41


SYMBOL TABLE
  LABEL                             VALUE 

T1GSS                             00000001
T1INSYNC                          00000002
T1OSCEN                           00000003
T1SYNC                            00000002
T2CKPS0                           00000000
T2CKPS1                           00000001
T2CON                             00000012
TLA_3                             000004CC
TLA_4                             000004D5
TLA_5                             000004DD
TLA_6                             000004E8
TLA_7                             000004EE
TLA_8                             000004F6
TLO_3                             0000049E
TLO_4                             000004A8
TLO_5                             000004AE
TLO_6                             000004B4
TLO_7                             000004C0
TLO_8                             000004C6
TMR0                              00000001
TMR0IE                            00000005
TMR0IF                            00000002
TMR1                              0000000E
TMR1CS                            00000001
TMR1GE                            00000006
TMR1H                             0000000F
TMR1IE                            00000000
TMR1IF                            00000000
TMR1L                             0000000E
TMR1ON                            00000000
TMR2                              00000011
TMR2IE                            00000001
TMR2IF                            00000001
TMR2ON                            00000002
TOUTPS0                           00000003
TOUTPS1                           00000004
TOUTPS2                           00000005
TOUTPS3                           00000006
TRISA                             00000085
TRISA0                            00000000
TRISA1                            00000001
TRISA2                            00000002
TRISA3                            00000003
TRISA4                            00000004
TRISA5                            00000005
TRISA6                            00000006
TRISA7                            00000007
TRISB                             00000086
TRISB0                            00000000
TRISB1                            00000001
TRISB2                            00000002
TRISB3                            00000003
TRISB4                            00000004
MPASM  5.49                     METRONOMO.ASM   5-6-2018  16:23:18         PAGE 42


SYMBOL TABLE
  LABEL                             VALUE 

TRISB5                            00000005
TRISB6                            00000006
TRISB7                            00000007
TRISC                             00000087
TRISC0                            00000000
TRISC1                            00000001
TRISC2                            00000002
TRISC3                            00000003
TRISC4                            00000004
TRISC5                            00000005
TRISC6                            00000006
TRISC7                            00000007
TRISD                             00000088
TRISD0                            00000000
TRISD1                            00000001
TRISD2                            00000002
TRISD3                            00000003
TRISD4                            00000004
TRISD5                            00000005
TRISD6                            00000006
TRISD7                            00000007
TRISE                             00000089
TRISE0                            00000000
TRISE1                            00000001
TRISE2                            00000002
TRISE3                            00000003
TRMT                              00000001
TUN0                              00000000
TUN1                              00000001
TUN2                              00000002
TUN3                              00000003
TUN4                              00000004
TX8_9                             00000006
TX9                               00000006
TX9D                              00000000
TXD8                              00000000
TXEN                              00000005
TXIE                              00000004
TXIF                              00000004
TXREG                             00000019
TXSTA                             00000098
UA                                00000001
ULPWUE                            00000005
ULPWUIE                           00000002
ULPWUIF                           00000002
VCFG0                             00000004
VCFG1                             00000005
VR0                               00000000
VR1                               00000001
VR2                               00000002
VR3                               00000003
VRCON                             00000097
VREN                              00000007
MPASM  5.49                     METRONOMO.ASM   5-6-2018  16:23:18         PAGE 43


SYMBOL TABLE
  LABEL                             VALUE 

VROE                              00000006
VRR                               00000005
VRSS                              00000004
W                                 00000000
WCOL                              00000007
WDTCON                            00000105
WDTPS0                            00000001
WDTPS1                            00000002
WDTPS2                            00000003
WDTPS3                            00000004
WPUB                              00000095
WPUB0                             00000000
WPUB1                             00000001
WPUB2                             00000002
WPUB3                             00000003
WPUB4                             00000004
WPUB5                             00000005
WPUB6                             00000006
WPUB7                             00000007
WR                                00000001
WREN                              00000002
WRERR                             00000003
WUE                               00000001
Z                                 00000002
_.org_0_013E                      0000013E
_.org_0_0150                      00000150
_.org_0_0162                      00000162
_.org_0_0174                      00000174
_.org_0_0186                      00000186
_.org_0_0198                      00000198
_.org_0_01D3                      000001D3
_.org_0_01E5                      000001E5
_.org_0_01F7                      000001F7
_.org_0_0209                      00000209
_.org_0_021B                      0000021B
_.org_0_022D                      0000022D
_.org_0_0267                      00000267
_.org_0_0279                      00000279
_.org_0_028B                      0000028B
_.org_0_029D                      0000029D
_.org_0_02AF                      000002AF
_.org_0_02C1                      000002C1
_.org_0_02FE                      000002FE
_.org_0_0310                      00000310
_.org_0_0322                      00000322
_.org_0_0334                      00000334
_.org_0_0346                      00000346
_.org_0_0358                      00000358
_.org_0_0391                      00000391
_.org_0_03A3                      000003A3
_.org_0_03B5                      000003B5
_.org_0_03C7                      000003C7
_.org_0_03D9                      000003D9
MPASM  5.49                     METRONOMO.ASM   5-6-2018  16:23:18         PAGE 44


SYMBOL TABLE
  LABEL                             VALUE 

_.org_0_03EB                      000003EB
_.org_0_0426                      00000426
_.org_0_0438                      00000438
_.org_0_044A                      0000044A
_.org_0_045C                      0000045C
_.org_0_046E                      0000046E
_.org_0_0480                      00000480
_10MS                             000005B8
_20MS                             000005BF
_BOR21V                           00003EFF
_BOR40V                           00003FFF
_BOR4V_BOR21V                     00003EFF
_BOR4V_BOR40V                     00003FFF
_BOREN_NSLEEP                     00003EFF
_BOREN_OFF                        00003CFF
_BOREN_ON                         00003FFF
_BOREN_SBODEN                     00003DFF
_BOR_NSLEEP                       00003EFF
_BOR_OFF                          00003CFF
_BOR_ON                           00003FFF
_BOR_SBODEN                       00003DFF
_CONFIG1                          00002007
_CONFIG2                          00002008
_CPD_OFF                          00003FFF
_CPD_ON                           00003F7F
_CP_OFF                           00003FFF
_CP_ON                            00003FBF
_DEBUG_OFF                        00003FFF
_DEBUG_ON                         00001FFF
_DEVID1                           00002006
_EC_OSC                           00003FFB
_EXTRC                            00003FFF
_EXTRCIO                          00003FFE
_EXTRC_OSC_CLKOUT                 00003FFF
_EXTRC_OSC_NOCLKOUT               00003FFE
_FCMEN_OFF                        000037FF
_FCMEN_ON                         00003FFF
_FOSC_EC                          00003FFB
_FOSC_EXTRC_CLKOUT                00003FFF
_FOSC_EXTRC_NOCLKOUT              00003FFE
_FOSC_HS                          00003FFA
_FOSC_INTRC_CLKOUT                00003FFD
_FOSC_INTRC_NOCLKOUT              00003FFC
_FOSC_LP                          00003FF8
_FOSC_XT                          00003FF9
_HS_OSC                           00003FFA
_IDLOC0                           00002000
_IDLOC1                           00002001
_IDLOC2                           00002002
_IDLOC3                           00002003
_IESO_OFF                         00003BFF
_IESO_ON                          00003FFF
_INTOSC                           00003FFD
MPASM  5.49                     METRONOMO.ASM   5-6-2018  16:23:18         PAGE 45


SYMBOL TABLE
  LABEL                             VALUE 

_INTOSCIO                         00003FFC
_INTRC_OSC_CLKOUT                 00003FFD
_INTRC_OSC_NOCLKOUT               00003FFC
_LP_OSC                           00003FF8
_LVP_OFF                          00002FFF
_LVP_ON                           00003FFF
_MCLRE_OFF                        00003FDF
_MCLRE_ON                         00003FFF
_PWRTE_OFF                        00003FFF
_PWRTE_ON                         00003FEF
_WDTE_OFF                         00003FF7
_WDTE_ON                          00003FFF
_WDT_OFF                          00003FF7
_WDT_ON                           00003FFF
_WRT_1FOURTH                      00003BFF
_WRT_256                          00003DFF
_WRT_HALF                         000039FF
_WRT_OFF                          00003FFF
_XT_OSC                           00003FF9
__16F887                          00000001
__DEBUG                           1

Errors   :     0
Warnings :     0 reported,     0 suppressed
Messages :     4 reported,     0 suppressed

